Component: ARM Compiler 5.06 update 7 (build 960) Tool: armlink [4d3601]

==============================================================================

Section Cross References

    http_server.o(.text) refers to net_sys.o(i.netInitialize) for netInitialize
    http_server.o(.text) refers to rtx_thread.o(.text) for osThreadExit
    http_server.o(.constdata) refers to http_server.o(.bss) for app_main_stk
    http_server_cgi.o(.text) refers to _scanf_int.o(.text) for _scanf_int
    http_server_cgi.o(.text) refers to net_http_server.o(i.netCGI_GetEnvVar) for netCGI_GetEnvVar
    http_server_cgi.o(.text) refers to net_addr.o(i.netIP_aton) for netIP_aton
    http_server_cgi.o(.text) refers to net_sys.o(i.netIF_SetOption) for netIF_SetOption
    http_server_cgi.o(.text) refers to strncmp.o(.text) for strncmp
    http_server_cgi.o(.text) refers to __0sscanf.o(.text) for __0sscanf
    http_server_cgi.o(.text) refers to printf8.o(i.__0sprintf$8) for __2sprintf
    http_server_cgi.o(.text) refers to http_server_cgi.o(.bss) for ip_addr
    http_server_cgi.o(.text) refers to http_server_cgi.o(.data) for opciones
    web.o(.text) refers to web.o(.constdata) for imageFileTable
    main.o(.text) refers to rtx_kernel.o(.text) for osKernelGetState
    main.o(.text) refers to stm32f7xx_hal_rcc.o(.text) for HAL_RCC_OscConfig
    main.o(.text) refers to stm32f7xx_hal_pwr_ex.o(.text) for HAL_PWREx_EnableOverDrive
    main.o(.text) refers to stm32f7xx_hal_cortex.o(.text) for HAL_MPU_Disable
    main.o(.text) refers to stm32f7xx_hal.o(.text) for HAL_Init
    main.o(.text) refers to system_stm32f7xx.o(.text) for SystemCoreClockUpdate
    main.o(.text) refers to rtx_thread.o(.text) for osThreadNew
    main.o(.text) refers to system_stm32f7xx.o(.data) for SystemCoreClock
    main.o(.text) refers to main.o(.data) for ticks
    main.o(.text) refers to http_server.o(.constdata) for app_main_attr
    main.o(.text) refers to http_server.o(.text) for app_main
    irq_armv7m.o(.text) refers to rtx_system.o(.text) for osRtxPendSV_Handler
    irq_armv7m.o(.text) refers to rtx_kernel.o(.data.os) for osRtxInfo
    irq_armv7m.o(.text) refers to rtx_lib.o(.constdata) for osRtxUserSVC
    rtx_delay.o(.text) refers to rtx_evr.o(.text) for EvrRtxDelayError
    rtx_delay.o(.text) refers to rtx_thread.o(.text) for osRtxThreadWaitEnter
    rtx_delay.o(.text) refers to rtx_kernel.o(.data.os) for osRtxInfo
    rtx_evflags.o(.text) refers to rtx_evflags.o(.emb_text) for __asm___13_rtx_evflags_c_e167c757__atomic_set32
    rtx_evflags.o(.text) refers to rtx_thread.o(.text) for osRtxThreadListRemove
    rtx_evflags.o(.text) refers to rtx_evr.o(.text) for EvrRtxEventFlagsWaitCompleted
    rtx_evflags.o(.text) refers to rtx_mempool.o(.text) for osRtxMemoryPoolAlloc
    rtx_evflags.o(.text) refers to rtx_memory.o(.text) for osRtxMemoryAlloc
    rtx_evflags.o(.text) refers to rtx_system.o(.text) for osRtxPostProcess
    rtx_evflags.o(.text) refers to rtx_kernel.o(.data.os) for osRtxInfo
    rtx_evr.o(.text) refers to eventrecorder.o(.text) for EventRecord4
    rtx_kernel.o(.text) refers to os_systick.o(.text) for OS_Tick_Disable
    rtx_kernel.o(.text) refers to rtx_evr.o(.text) for EvrRtxKernelInitialized
    rtx_kernel.o(.text) refers to rtx_memory.o(.text) for osRtxMemoryInit
    rtx_kernel.o(.text) refers to rtx_mempool.o(.text) for osRtxMemoryPoolInit
    rtx_kernel.o(.text) refers to memcpya.o(.text) for __aeabi_memcpy
    rtx_kernel.o(.text) refers to rtx_thread.o(.text) for osRtxThreadStartup
    rtx_kernel.o(.text) refers to rtx_kernel.o(.data.os) for osRtxInfo
    rtx_kernel.o(.text) refers to rtx_lib.o(.rodata) for osRtxConfig
    rtx_kernel.o(.text) refers to irq_armv7m.o(.text) for SysTick_Handler
    rtx_kernel.o(.text) refers to rtx_config.o(.text) for osRtxErrorNotify
    rtx_kernel.o(.text) refers to rtx_lib.o(.text) for osRtxKernelPreInit
    rtx_kernel.o(.data.os) refers to rtx_kernel.o(.conststrlit) for .conststrlit
    rtx_lib.o(.text) refers to rtx_kernel.o(.text) for osKernelGetState
    rtx_lib.o(.text) refers to eventrecorder.o(.text) for EventRecorderInitialize
    rtx_lib.o(.constdata) refers to rtx_lib.o(.bss.os.thread.cb) for os_idle_thread_cb
    rtx_lib.o(.constdata) refers to rtx_lib.o(.bss.os.thread.idle.stack) for os_idle_thread_stack
    rtx_lib.o(.constdata) refers to rtx_lib.o(.bss.os.thread.timer.stack) for os_timer_thread_stack
    rtx_lib.o(.constdata) refers to rtx_lib.o(.bss.os.msgqueue.cb) for os_timer_mq_cb
    rtx_lib.o(.constdata) refers to rtx_lib.o(.bss.os.msgqueue.mem) for os_timer_mq_data
    rtx_lib.o(.constdata) refers to irq_armv7m.o(.constdata) for irqRtxLib
    rtx_lib.o(.rodata) refers to rtx_lib.o(.bss.os) for os_isr_queue
    rtx_lib.o(.rodata) refers to rtx_lib.o(.constdata) for os_idle_thread_attr
    rtx_lib.o(.rodata) refers to rtx_timer.o(.text) for osRtxTimerThread
    rtx_memory.o(.text) refers to rtx_evr.o(.text) for EvrRtxMemoryInit
    rtx_mempool.o(.text) refers to rtx_evr.o(.text) for EvrRtxMemoryBlockInit
    rtx_mempool.o(.text) refers to rtx_mempool.o(.emb_text) for __asm___13_rtx_mempool_c_7914b4c7__atomic_link_get
    rtx_mempool.o(.text) refers to rtx_thread.o(.text) for osRtxThreadListGet
    rtx_mempool.o(.text) refers to rtx_memory.o(.text) for osRtxMemoryAlloc
    rtx_mempool.o(.text) refers to memseta.o(.text) for __aeabi_memclr
    rtx_mempool.o(.text) refers to rtx_kernel.o(.data.os) for osRtxInfo
    rtx_mempool.o(.text) refers to rtx_system.o(.text) for osRtxPostProcess
    rtx_msgqueue.o(.text) refers to rtx_msgqueue.o(.emb_text) for __asm___14_rtx_msgqueue_c_a86a7a93__atomic_inc32
    rtx_msgqueue.o(.text) refers to rtx_mempool.o(.text) for osRtxMemoryPoolFree
    rtx_msgqueue.o(.text) refers to rtx_thread.o(.text) for osRtxThreadListGet
    rtx_msgqueue.o(.text) refers to memcpya.o(.text) for __aeabi_memcpy
    rtx_msgqueue.o(.text) refers to rtx_evr.o(.text) for EvrRtxMessageQueueInserted
    rtx_msgqueue.o(.text) refers to rtx_memory.o(.text) for osRtxMemoryAlloc
    rtx_msgqueue.o(.text) refers to memseta.o(.text) for __aeabi_memclr
    rtx_msgqueue.o(.text) refers to rtx_kernel.o(.data.os) for osRtxInfo
    rtx_msgqueue.o(.text) refers to rtx_system.o(.text) for osRtxPostProcess
    rtx_msgqueue.o(.text) refers to rtx_lib.o(.rodata) for osRtxConfig
    rtx_mutex.o(.text) refers to rtx_evr.o(.text) for EvrRtxMutexReleased
    rtx_mutex.o(.text) refers to rtx_thread.o(.text) for osRtxThreadListGet
    rtx_mutex.o(.text) refers to rtx_mempool.o(.text) for osRtxMemoryPoolAlloc
    rtx_mutex.o(.text) refers to rtx_memory.o(.text) for osRtxMemoryAlloc
    rtx_mutex.o(.text) refers to rtx_kernel.o(.data.os) for osRtxInfo
    rtx_semaphore.o(.text) refers to rtx_semaphore.o(.emb_text) for __asm___15_rtx_semaphore_c_c705bb47__atomic_dec16_nz
    rtx_semaphore.o(.text) refers to rtx_thread.o(.text) for osRtxThreadListGet
    rtx_semaphore.o(.text) refers to rtx_evr.o(.text) for EvrRtxSemaphoreAcquired
    rtx_semaphore.o(.text) refers to rtx_mempool.o(.text) for osRtxMemoryPoolAlloc
    rtx_semaphore.o(.text) refers to rtx_memory.o(.text) for osRtxMemoryAlloc
    rtx_semaphore.o(.text) refers to rtx_kernel.o(.data.os) for osRtxInfo
    rtx_semaphore.o(.text) refers to rtx_system.o(.text) for osRtxPostProcess
    rtx_system.o(.text) refers to rtx_system.o(.emb_text) for __asm___12_rtx_system_c_024f2f18__atomic_inc16_lt
    rtx_system.o(.text) refers to os_systick.o(.text) for OS_Tick_AcknowledgeIRQ
    rtx_system.o(.text) refers to rtx_thread.o(.text) for osRtxThreadDelayTick
    rtx_system.o(.text) refers to rtx_evr.o(.text) for EvrRtxThreadPreempted
    rtx_system.o(.text) refers to rtx_kernel.o(.text) for osRtxKernelErrorNotify
    rtx_system.o(.text) refers to rtx_kernel.o(.data.os) for osRtxInfo
    rtx_thread.o(.text) refers to rtx_thread.o(.emb_text) for __asm___12_rtx_thread_c_add96be5__atomic_set32
    rtx_thread.o(.text) refers to rtx_evr.o(.text) for EvrRtxDelayCompleted
    rtx_thread.o(.text) refers to rtx_mutex.o(.text) for osRtxMutexOwnerRestore
    rtx_thread.o(.text) refers to rtx_mempool.o(.text) for osRtxMemoryPoolFree
    rtx_thread.o(.text) refers to rtx_memory.o(.text) for osRtxMemoryFree
    rtx_thread.o(.text) refers to rtx_kernel.o(.data.os) for osRtxInfo
    rtx_thread.o(.text) refers to rtx_kernel.o(.text) for osRtxKernelErrorNotify
    rtx_thread.o(.text) refers to rtx_lib.o(.rodata) for osRtxConfig
    rtx_thread.o(.text) refers to rtx_config.o(.text) for osRtxIdleThread
    rtx_thread.o(.text) refers to rtx_system.o(.text) for osRtxPostProcess
    rtx_timer.o(.text) refers to rtx_msgqueue.o(.text) for osMessageQueuePut
    rtx_timer.o(.text) refers to rtx_kernel.o(.text) for osRtxKernelErrorNotify
    rtx_timer.o(.text) refers to rtx_evr.o(.text) for EvrRtxTimerCallback
    rtx_timer.o(.text) refers to rtx_mempool.o(.text) for osRtxMemoryPoolAlloc
    rtx_timer.o(.text) refers to rtx_memory.o(.text) for osRtxMemoryAlloc
    rtx_timer.o(.text) refers to rtx_kernel.o(.data.os) for osRtxInfo
    os_systick.o(.text) refers to system_stm32f7xx.o(.data) for SystemCoreClock
    os_systick.o(.text) refers to os_systick.o(.bss.os) for PendST
    phy_lan8742a.o(.text) refers to phy_lan8742a.o(.constdata) for DriverVersion
    phy_lan8742a.o(.text) refers to phy_lan8742a.o(.bss) for PHY
    phy_lan8742a.o(.constdata) refers to phy_lan8742a.o(.text) for GetVersion
    emac_stm32f7xx.o(.text) refers to stm32f7xx_hal_gpio.o(.text) for HAL_GPIO_Init
    emac_stm32f7xx.o(.text) refers to emac_stm32f7xx.o(.ARM.__AT_0x2000C000) for Desc
    emac_stm32f7xx.o(.text) refers to emac_stm32f7xx.o(.bss) for Emac
    emac_stm32f7xx.o(.text) refers to emac_stm32f7xx.o(.constdata) for DriverVersion
    emac_stm32f7xx.o(.text) refers to stm32f7xx_hal_rcc.o(.text) for HAL_RCC_GetHCLKFreq
    emac_stm32f7xx.o(.text) refers to main.o(.text) for HAL_GetTick
    emac_stm32f7xx.o(.constdata) refers to emac_stm32f7xx.o(.text) for GetVersion
    eventrecorder.o(.text) refers to eventrecorder.o(.emb_text) for __asm___15_EventRecorder_c_e8d3082c__atomic_inc32
    eventrecorder.o(.text) refers to memseta.o(.text) for __aeabi_memclr4
    eventrecorder.o(.text) refers to eventrecorder.o(.bss.noinit) for EventStatus
    eventrecorder.o(.text) refers to eventrecorder.o(.data) for TS_OverflowLock
    eventrecorder.o(.text) refers to system_stm32f7xx.o(.data) for SystemCoreClock
    eventrecorder.o(.text) refers to eventrecorder.o(.constdata) for EventRecorderInfo
    eventrecorder.o(.text) refers to memcpya.o(.text) for __aeabi_memcpy
    eventrecorder.o(.constdata) refers to eventrecorder.o(.bss.noinit) for EventBuffer
    stm32f7xx_hal.o(.text) refers to stm32f7xx_hal_cortex.o(.text) for HAL_SYSTICK_Config
    stm32f7xx_hal.o(.text) refers to main.o(.text) for HAL_InitTick
    stm32f7xx_hal.o(.text) refers to stm32f7xx_hal.o(.data) for uwTickFreq
    stm32f7xx_hal.o(.text) refers to system_stm32f7xx.o(.data) for SystemCoreClock
    stm32f7xx_hal_adc.o(.text) refers to main.o(.text) for HAL_GetTick
    stm32f7xx_hal_adc.o(.text) refers to system_stm32f7xx.o(.data) for SystemCoreClock
    stm32f7xx_hal_adc.o(.text) refers to stm32f7xx_hal_adc_ex.o(.text) for HAL_ADCEx_InjectedConvCpltCallback
    stm32f7xx_hal_adc.o(.text) refers to stm32f7xx_hal_dma.o(.text) for HAL_DMA_Start_IT
    stm32f7xx_hal_adc_ex.o(.text) refers to main.o(.text) for HAL_GetTick
    stm32f7xx_hal_adc_ex.o(.text) refers to stm32f7xx_hal_adc.o(.text) for HAL_ADC_ErrorCallback
    stm32f7xx_hal_adc_ex.o(.text) refers to system_stm32f7xx.o(.data) for SystemCoreClock
    stm32f7xx_hal_adc_ex.o(.text) refers to stm32f7xx_hal_dma.o(.text) for HAL_DMA_Start_IT
    stm32f7xx_hal_dma.o(.text) refers to main.o(.text) for HAL_GetTick
    stm32f7xx_hal_dma.o(.text) refers to stm32f7xx_hal_dma.o(.constdata) for flagBitshiftOffset
    stm32f7xx_hal_dma.o(.text) refers to system_stm32f7xx.o(.data) for SystemCoreClock
    stm32f7xx_hal_pwr_ex.o(.text) refers to main.o(.text) for HAL_GetTick
    stm32f7xx_hal_rcc.o(.text) refers to main.o(.text) for HAL_GetTick
    stm32f7xx_hal_rcc.o(.text) refers to system_stm32f7xx.o(.data) for SystemCoreClock
    stm32f7xx_hal_rcc.o(.text) refers to stm32f7xx_hal.o(.data) for uwTickPrio
    stm32f7xx_hal_rcc.o(.text) refers to uldiv.o(.text) for __aeabi_uldivmod
    stm32f7xx_hal_rcc.o(.text) refers to stm32f7xx_hal_gpio.o(.text) for HAL_GPIO_Init
    stm32f7xx_hal_rcc.o(.text) refers to system_stm32f7xx.o(.constdata) for AHBPrescTable
    stm32f7xx_hal_rcc_ex.o(.text) refers to main.o(.text) for HAL_GetTick
    stm32f7xx_hal_sram.o(.text) refers to stm32f7xx_ll_fmc.o(.text) for FMC_NORSRAM_Init
    stm32f7xx_hal_sram.o(.text) refers to stm32f7xx_hal_dma.o(.text) for HAL_DMA_Start_IT
    stm32f7xx_ll_fmc.o(.text) refers to main.o(.text) for HAL_GetTick
    startup_stm32f769xx.o(RESET) refers to startup_stm32f769xx.o(STACK) for __initial_sp
    startup_stm32f769xx.o(RESET) refers to startup_stm32f769xx.o(.text) for Reset_Handler
    startup_stm32f769xx.o(RESET) refers to irq_armv7m.o(.text) for SVC_Handler
    startup_stm32f769xx.o(RESET) refers to emac_stm32f7xx.o(.text) for ETH_IRQHandler
    startup_stm32f769xx.o(.text) refers to system_stm32f7xx.o(.text) for SystemInit
    startup_stm32f769xx.o(.text) refers to entry.o(.ARM.Collect$$$$00000000) for __main
    system_stm32f7xx.o(.text) refers to system_stm32f7xx.o(.data) for SystemCoreClock
    system_stm32f7xx.o(.text) refers to system_stm32f7xx.o(.constdata) for AHBPrescTable
    net_config.o(.text) refers to rtx_kernel.o(.text) for osKernelGetTickFreq
    net_config.o(.text) refers to rtx_thread.o(.text) for osThreadNew
    net_config.o(.text) refers to rtx_timer.o(.text) for osTimerNew
    net_config.o(.text) refers to rtx_mutex.o(.text) for osMutexNew
    net_config.o(.text) refers to rtx_delay.o(.text) for osDelay
    net_config.o(.text) refers to rtx_semaphore.o(.text) for osSemaphoreNew
    net_config.o(.text) refers to net_eth.o(i.net_eth_callback) for net_eth_callback
    net_config.o(.text) refers to net_config.o(.data) for .data
    net_config.o(.text) refers to net_config.o(.constdata) for .constdata
    net_config.o(.text) refers to net_sys.o(i.netCore_Thread) for netCore_Thread
    net_config.o(.text) refers to net_sys.o(i.net_sys_tick) for net_sys_tick
    net_config.o(.text) refers to net_eth.o(i.netETH_Thread) for netETH_Thread
    net_config.o(.text) refers to net_eth.o(.bss) for net_eth0_if_control
    net_config.o(.constdata) refers to net_config.o(.conststring) for .conststring
    net_config.o(.constdata) refers to net_config.o(.bss.os.mutex.cb) for net_lock_cb
    net_config.o(.constdata) refers to net_config.o(.bss.os.timer.cb) for net_timer_cb
    net_config.o(.constdata) refers to net_config.o(.bss.os.thread.cb) for net_thread_cb
    net_config.o(.constdata) refers to net_config.o(.bss) for net_stack
    net_config.o(.constdata) refers to net_config.o(.bss.os.semaphore.cb) for eth0_lock_cb
    net_config.o(.constdata) refers to net_arp.o(.bss) for net_eth0_arp_control
    net_config.o(.constdata) refers to net_icmp.o(.data) for net_eth0_icmp_control
    net_config.o(.constdata) refers to net_config.o(.data) for eth0_state
    net_config.o(.constdata) refers to net_eth.o(i.net_eth_send_frame) for net_eth_send_frame
    net_config.o(.constdata) refers to net_eth.o(i.net_eth_config_mcast) for net_eth_config_mcast
    net_config.o(.constdata) refers to net_eth.o(i.net_eth_output) for net_eth_output
    net_config.o(.constdata) refers to net_eth.o(.bss) for net_eth0_if_control
    net_config.o(.constdata) refers to emac_stm32f7xx.o(.constdata) for Driver_ETH_MAC0
    net_config.o(.constdata) refers to phy_lan8742a.o(.constdata) for Driver_ETH_PHY0
    net_config.o(.constdata) refers to net_config.o(.text) for eth0_callback
    net_config.o(.constdata) refers to net_http_server_auth.o(.constdata) for net_http_auth_basic_func
    net_config.o(.constdata) refers to net_eth.o(i.net_eth_iface_init) for net_eth_iface_init
    net_config.o(.constdata) refers to net_loopback.o(i.net_loop_iface_init) for net_loop_iface_init
    net_config.o(.constdata) refers to net_arp.o(i.net_arp_cache_init) for net_arp_cache_init
    net_config.o(.constdata) refers to net_ip4_frag.o(i.net_ip4_frag_init) for net_ip4_frag_init
    net_config.o(.constdata) refers to net_ping_core.o(i.net_ping_client_init) for net_ping_client_init
    net_config.o(.constdata) refers to net_udp.o(i.net_udp_socket_init) for net_udp_socket_init
    net_config.o(.constdata) refers to net_tcp.o(i.net_tcp_socket_init) for net_tcp_socket_init
    net_config.o(.constdata) refers to net_http_server.o(i.net_http_server_init) for net_http_server_init
    net_config.o(.constdata) refers to net_nbns_client.o(i.net_nbns_client_init) for net_nbns_client_init
    net_config.o(.constdata) refers to net_eth.o(i.net_eth_iface_run) for net_eth_iface_run
    net_config.o(.constdata) refers to net_loopback.o(i.net_loop_iface_run) for net_loop_iface_run
    net_config.o(.constdata) refers to net_arp.o(i.net_arp_cache_run) for net_arp_cache_run
    net_config.o(.constdata) refers to net_ip4_frag.o(i.net_ip4_frag_run) for net_ip4_frag_run
    net_config.o(.constdata) refers to net_ping_core.o(i.net_ping_client_run) for net_ping_client_run
    net_config.o(.constdata) refers to net_tcp.o(i.net_tcp_socket_run) for net_tcp_socket_run
    net_config.o(.constdata) refers to net_http_server.o(i.net_http_server_run) for net_http_server_run
    net_config.o(.constdata) refers to net_eth.o(i.net_eth_iface_uninit) for net_eth_iface_uninit
    net_config.o(.constdata) refers to net_loopback.o(i.net_loop_iface_uninit) for net_loop_iface_uninit
    net_config.o(.constdata) refers to net_arp.o(i.net_arp_cache_uninit) for net_arp_cache_uninit
    net_config.o(.constdata) refers to net_ip4_frag.o(i.net_ip4_frag_uninit) for net_ip4_frag_uninit
    net_config.o(.constdata) refers to net_ping_core.o(i.net_ping_client_uninit) for net_ping_client_uninit
    net_config.o(.constdata) refers to net_udp.o(i.net_udp_socket_uninit) for net_udp_socket_uninit
    net_config.o(.constdata) refers to net_tcp.o(i.net_tcp_socket_uninit) for net_tcp_socket_uninit
    net_config.o(.constdata) refers to net_http_server.o(i.net_http_server_uninit) for net_http_server_uninit
    net_config.o(.constdata) refers to net_nbns_client.o(i.net_nbns_client_uninit) for net_nbns_client_uninit
    net_config.o(.constdata) refers to net_eth.o(i.net_eth_get_option) for net_eth_get_option
    net_config.o(.constdata) refers to net_eth.o(i.net_eth_set_option) for net_eth_set_option
    net_debug.o(.text) refers to eventrecorder.o(.text) for EventRecorderDisable
    net_eth.o(i.eth_if_map) refers to net_config.o(.constdata) for net_eth_list
    net_eth.o(i.eth_iface_init) refers to eventrecorder.o(.text) for EventRecord2
    net_eth.o(i.eth_iface_init) refers to memseta.o(.text) for __aeabi_memclr4
    net_eth.o(i.eth_iface_init) refers to net_addr.o(i.netMAC_aton) for netMAC_aton
    net_eth.o(i.eth_iface_init) refers to net_config.o(.text) for net_sys_error
    net_eth.o(i.eth_iface_init) refers to net_eth.o(i.eth_mtu_limit) for eth_mtu_limit
    net_eth.o(i.eth_iface_init) refers to net_addr.o(i.net_addr4_aton) for net_addr4_aton
    net_eth.o(i.eth_iface_init) refers to net_eth.o(i.netETH_Notify) for netETH_Notify
    net_eth.o(i.eth_iface_init) refers to net_addr.o(i.net_addr6_aton) for net_addr6_aton
    net_eth.o(i.eth_iface_init) refers to net_common.o(i.net_crc_buf) for net_crc_buf
    net_eth.o(i.eth_iface_init) refers to net_sys.o(.bss) for net_dbg_buf
    net_eth.o(i.eth_iface_init) refers to net_sys.o(.bss) for net_sys_control
    net_eth.o(i.eth_iface_run) refers to eventrecorder.o(.text) for EventRecord2
    net_eth.o(i.eth_iface_run) refers to net_eth.o(i.netETH_Notify) for netETH_Notify
    net_eth.o(i.eth_iface_run) refers to net_eth.o(i.net_eth_config_mcast) for net_eth_config_mcast
    net_eth.o(i.eth_iface_run) refers to net_arp.o(i.net_arp_notify) for net_arp_notify
    net_eth.o(i.eth_iface_run) refers to net_eth.o(i.netETH_ReceiveRaw) for netETH_ReceiveRaw
    net_eth.o(i.eth_iface_run) refers to net_mem.o(i.net_mem_free) for net_mem_free
    net_eth.o(i.eth_iface_run) refers to net_arp.o(i.net_arp_process) for net_arp_process
    net_eth.o(i.eth_iface_run) refers to net_ip4.o(i.net_ip4_chk_frame) for net_ip4_chk_frame
    net_eth.o(i.eth_iface_run) refers to net_arp.o(i.net_arp_cache_early) for net_arp_cache_early
    net_eth.o(i.eth_iface_run) refers to net_arp.o(i.net_arp_cache_add) for net_arp_cache_add
    net_eth.o(i.eth_iface_run) refers to net_ip4.o(i.net_ip4_reass_frame) for net_ip4_reass_frame
    net_eth.o(i.eth_iface_run) refers to net_icmp.o(i.net_icmp_process) for net_icmp_process
    net_eth.o(i.eth_iface_run) refers to net_config.o(.text) for net_igmp_process
    net_eth.o(i.eth_iface_run) refers to net_ip6.o(i.net_ip6_chk_frame) for net_ip6_chk_frame
    net_eth.o(i.eth_iface_run) refers to net_ndp.o(i.net_ndp_cache_refresh) for net_ndp_cache_refresh
    net_eth.o(i.eth_iface_run) refers to net_icmp6.o(i.net_icmp6_process) for net_icmp6_process
    net_eth.o(i.eth_iface_run) refers to net_udp.o(i.net_udp_process) for net_udp_process
    net_eth.o(i.eth_iface_run) refers to net_tcp.o(i.net_tcp_process) for net_tcp_process
    net_eth.o(i.eth_iface_run) refers to net_sys.o(.bss) for net_sys_control
    net_eth.o(i.eth_iface_run) refers to net_addr.o(.constdata) for net_addr_bcast
    net_eth.o(i.eth_iface_uninit) refers to eventrecorder.o(.text) for EventRecord2
    net_eth.o(i.eth_iface_uninit) refers to net_eth.o(i.netETH_Notify) for netETH_Notify
    net_eth.o(i.eth_iface_uninit) refers to memseta.o(.text) for __aeabi_memclr
    net_eth.o(i.eth_iface_uninit) refers to net_config.o(.text) for netif_delete
    net_eth.o(i.eth_lock) refers to net_config.o(.text) for netif_lock
    net_eth.o(i.eth_receive) refers to net_mem.o(i.net_mem_alloc) for net_mem_alloc
    net_eth.o(i.eth_receive) refers to net_sys.o(i.net_sys_wakeup) for net_sys_wakeup
    net_eth.o(i.eth_unlock) refers to net_config.o(.text) for netif_unlock
    net_eth.o(i.netETH_SendRaw) refers to net_eth.o(i.eth_if_map) for eth_if_map
    net_eth.o(i.netETH_SendRaw) refers to net_sys.o(i.net_sys_lock) for net_sys_lock
    net_eth.o(i.netETH_SendRaw) refers to eventrecorder.o(.text) for EventRecord2
    net_eth.o(i.netETH_SendRaw) refers to net_eth.o(i.eth_lock) for eth_lock
    net_eth.o(i.netETH_SendRaw) refers to net_eth.o(i.eth_unlock) for eth_unlock
    net_eth.o(i.netETH_SendRaw) refers to net_sys.o(i.net_sys_unlock) for net_sys_unlock
    net_eth.o(i.netETH_Thread) refers to net_config.o(.text) for netos_delay
    net_eth.o(i.netETH_Thread) refers to net_eth.o(i.eth_lock) for eth_lock
    net_eth.o(i.netETH_Thread) refers to net_eth.o(i.eth_check_link) for eth_check_link
    net_eth.o(i.netETH_Thread) refers to net_eth.o(i.eth_unlock) for eth_unlock
    net_eth.o(i.netETH_Thread) refers to net_eth.o(i.eth_receive) for eth_receive
    net_eth.o(i.net_eth_callback) refers to net_config.o(.text) for netos_flag_set
    net_eth.o(i.net_eth_config_mcast) refers to net_eth.o(i.eth_if_map) for eth_if_map
    net_eth.o(i.net_eth_config_mcast) refers to net_mem.o(i.net_mem_alloc) for net_mem_alloc
    net_eth.o(i.net_eth_config_mcast) refers to net_config.o(.text) for net_igmp_collect_mcast
    net_eth.o(i.net_eth_config_mcast) refers to net_ip6.o(i.net_ip6_collect_mcast) for net_ip6_collect_mcast
    net_eth.o(i.net_eth_config_mcast) refers to net_eth.o(i.eth_lock) for eth_lock
    net_eth.o(i.net_eth_config_mcast) refers to net_eth.o(i.eth_unlock) for eth_unlock
    net_eth.o(i.net_eth_config_mcast) refers to net_mem.o(i.net_mem_free) for net_mem_free
    net_eth.o(i.net_eth_get_addr) refers to net_eth.o(i.eth_if_map) for eth_if_map
    net_eth.o(i.net_eth_get_addr) refers to net_ndp.o(i.net_ndp_find_mac) for net_ndp_find_mac
    net_eth.o(i.net_eth_get_addr) refers to net_arp.o(i.net_arp_find_mac) for net_arp_find_mac
    net_eth.o(i.net_eth_get_option) refers to net_eth.o(i.eth_if_map) for eth_if_map
    net_eth.o(i.net_eth_get_option) refers to net_eth.o(i.eth_opt_len) for eth_opt_len
    net_eth.o(i.net_eth_get_option) refers to net_addr.o(i.net_addr6_copy) for net_addr6_copy
    net_eth.o(i.net_eth_get_option) refers to eventrecorder.o(.text) for EventRecord2
    net_eth.o(i.net_eth_iface_init) refers to net_eth.o(i.eth_iface_init) for eth_iface_init
    net_eth.o(i.net_eth_iface_init) refers to net_config.o(.constdata) for net_eth_list
    net_eth.o(i.net_eth_iface_run) refers to net_eth.o(i.eth_iface_run) for eth_iface_run
    net_eth.o(i.net_eth_iface_run) refers to net_config.o(.constdata) for net_eth_list
    net_eth.o(i.net_eth_iface_uninit) refers to net_eth.o(i.eth_iface_uninit) for eth_iface_uninit
    net_eth.o(i.net_eth_iface_uninit) refers to net_config.o(.constdata) for net_eth_list
    net_eth.o(i.net_eth_output) refers to net_eth.o(i.eth_if_map) for eth_if_map
    net_eth.o(i.net_eth_output) refers to eventrecorder.o(.text) for EventRecord2
    net_eth.o(i.net_eth_output) refers to net_eth.o(i.eth_lock) for eth_lock
    net_eth.o(i.net_eth_output) refers to net_config.o(.text) for netos_delay
    net_eth.o(i.net_eth_output) refers to net_eth.o(i.eth_unlock) for eth_unlock
    net_eth.o(i.net_eth_send_frame) refers to net_eth.o(i.eth_if_map) for eth_if_map
    net_eth.o(i.net_eth_send_frame) refers to eventrecorder.o(.text) for EventRecord2
    net_eth.o(i.net_eth_send_frame) refers to net_addr.o(i.net_addr4_to_mac) for net_addr4_to_mac
    net_eth.o(i.net_eth_send_frame) refers to net_ip4.o(i.net_ip4_is_subcast) for net_ip4_is_subcast
    net_eth.o(i.net_eth_send_frame) refers to net_arp.o(i.net_arp_cache_find) for net_arp_cache_find
    net_eth.o(i.net_eth_send_frame) refers to net_arp.o(i.net_arp_enqueue) for net_arp_enqueue
    net_eth.o(i.net_eth_send_frame) refers to net_addr.o(i.net_addr6_is_unspec) for net_addr6_is_unspec
    net_eth.o(i.net_eth_send_frame) refers to net_addr.o(i.net_addr6_to_mac) for net_addr6_to_mac
    net_eth.o(i.net_eth_send_frame) refers to net_eth.o(i.net_eth_output) for net_eth_output
    net_eth.o(i.net_eth_send_frame) refers to net_ndp.o(i.net_ndp_cache_find) for net_ndp_cache_find
    net_eth.o(i.net_eth_send_frame) refers to net_ndp.o(i.net_ndp_enqueue) for net_ndp_enqueue
    net_eth.o(i.net_eth_send_frame) refers to memcpya.o(.text) for __aeabi_memcpy
    net_eth.o(i.net_eth_send_frame) refers to net_sys.o(.bss) for net_dbg_buf
    net_eth.o(i.net_eth_send_frame) refers to net_addr.o(.constdata) for net_addr_bcast
    net_eth.o(i.net_eth_set_option) refers to net_eth.o(i.eth_if_map) for eth_if_map
    net_eth.o(i.net_eth_set_option) refers to net_eth.o(i.eth_opt_len) for eth_opt_len
    net_eth.o(i.net_eth_set_option) refers to eventrecorder.o(.text) for EventRecordData
    net_eth.o(i.net_eth_set_option) refers to net_eth.o(i.eth_lock) for eth_lock
    net_eth.o(i.net_eth_set_option) refers to net_eth.o(i.eth_unlock) for eth_unlock
    net_eth.o(i.net_eth_set_option) refers to net_common.o(i.net_crc_buf) for net_crc_buf
    net_eth.o(i.net_eth_set_option) refers to net_arp.o(i.net_arp_notify) for net_arp_notify
    net_eth.o(i.net_eth_set_option) refers to net_eth.o(i.eth_mtu_limit) for eth_mtu_limit
    net_eth.o(i.net_eth_set_option) refers to memcpya.o(.text) for __aeabi_memcpy
    net_eth.o(i.net_eth_set_option) refers to net_addr.o(i.net_addr6_copy) for net_addr6_copy
    net_eth.o(i.net_eth_set_option) refers to net_eth.o(i.net_eth_config_mcast) for net_eth_config_mcast
    net_eth.o(i.net_eth_set_option) refers to net_sys.o(.bss) for net_dbg_buf
    net_eth.o(i.net_eth_set_option) refers to net_sys.o(.bss) for net_sys_control
    net_arp.o(i.arp_cache_run) refers to net_arp.o(i.arp_probe_run) for arp_probe_run
    net_arp.o(i.arp_cache_run) refers to eventrecorder.o(.text) for EventRecord2
    net_arp.o(i.arp_cache_run) refers to net_arp.o(i.arp_que_free) for arp_que_free
    net_arp.o(i.arp_cache_run) refers to net_arp.o(i.arp_send_request) for arp_send_request
    net_arp.o(i.arp_cache_run) refers to net_sys.o(.bss) for net_sys_control
    net_arp.o(i.arp_cache_run) refers to net_sys.o(.bss) for net_dbg_buf
    net_arp.o(i.arp_probe_run) refers to eventrecorder.o(.text) for EventRecord2
    net_arp.o(i.arp_probe_run) refers to net_arp.o(i.arp_send_request) for arp_send_request
    net_arp.o(i.arp_probe_run) refers to net_sys.o(i.net_sys_resume) for net_sys_resume
    net_arp.o(i.arp_probe_run) refers to net_sys.o(.bss) for net_dbg_buf
    net_arp.o(i.arp_probe_start) refers to eventrecorder.o(.text) for EventRecord2
    net_arp.o(i.arp_probe_start) refers to net_arp.o(i.arp_send_request) for arp_send_request
    net_arp.o(i.arp_probe_start) refers to net_sys.o(.bss) for net_dbg_buf
    net_arp.o(i.arp_proc_response) refers to net_mem.o(i.net_mem_free) for net_mem_free
    net_arp.o(i.arp_proc_response) refers to eventrecorder.o(.text) for EventRecord2
    net_arp.o(i.arp_que_free) refers to net_mem.o(i.net_mem_free) for net_mem_free
    net_arp.o(i.arp_send_reply) refers to eventrecorder.o(.text) for EventRecord2
    net_arp.o(i.arp_send_reply) refers to net_mem.o(i.net_mem_alloc) for net_mem_alloc
    net_arp.o(i.arp_send_reply) refers to net_mem.o(i.net_mem_free) for net_mem_free
    net_arp.o(i.arp_send_request) refers to eventrecorder.o(.text) for EventRecord2
    net_arp.o(i.arp_send_request) refers to net_mem.o(i.net_mem_alloc) for net_mem_alloc
    net_arp.o(i.arp_send_request) refers to net_mem.o(i.net_mem_free) for net_mem_free
    net_arp.o(i.arp_send_request) refers to net_addr.o(.constdata) for net_addr_bcast
    net_arp.o(i.arp_send_request) refers to net_addr.o(.constdata) for net_addr_unspec
    net_arp.o(i.arp_sender_valid) refers to net_addr.o(.constdata) for net_addr_bcast
    net_arp.o(i.arp_sender_valid) refers to net_addr.o(.constdata) for net_addr_unspec
    net_arp.o(i.netARP_CacheIP) refers to net_sys.o(i.net_if_map_lan) for net_if_map_lan
    net_arp.o(i.netARP_CacheIP) refers to net_sys.o(i.net_sys_lock) for net_sys_lock
    net_arp.o(i.netARP_CacheIP) refers to eventrecorder.o(.text) for EventRecord2
    net_arp.o(i.netARP_CacheIP) refers to net_arp.o(i.arp_is_cacheable) for arp_is_cacheable
    net_arp.o(i.netARP_CacheIP) refers to net_arp.o(i.net_arp_cache_find) for net_arp_cache_find
    net_arp.o(i.netARP_CacheIP) refers to net_sys.o(i.net_sys_unlock) for net_sys_unlock
    net_arp.o(i.netARP_CacheIP) refers to net_sys.o(.bss) for net_dbg_buf
    net_arp.o(i.netARP_CacheMAC) refers to net_sys.o(i.net_if_map_lan) for net_if_map_lan
    net_arp.o(i.netARP_CacheMAC) refers to net_sys.o(i.net_sys_lock) for net_sys_lock
    net_arp.o(i.netARP_CacheMAC) refers to eventrecorder.o(.text) for EventRecordData
    net_arp.o(i.netARP_CacheMAC) refers to net_arp.o(i.arp_cache_alloc) for arp_cache_alloc
    net_arp.o(i.netARP_CacheMAC) refers to net_arp.o(i.arp_que_free) for arp_que_free
    net_arp.o(i.netARP_CacheMAC) refers to net_sys.o(i.net_sys_unlock) for net_sys_unlock
    net_arp.o(i.netARP_CacheMAC) refers to net_sys.o(.bss) for net_dbg_buf
    net_arp.o(i.netARP_CacheMAC) refers to net_addr.o(.constdata) for net_addr_unspec
    net_arp.o(i.netARP_CacheMAC) refers to net_addr.o(.constdata) for net_addr_bcast
    net_arp.o(i.netARP_ClearCache) refers to net_sys.o(i.net_if_map_lan) for net_if_map_lan
    net_arp.o(i.netARP_ClearCache) refers to net_sys.o(i.net_sys_lock) for net_sys_lock
    net_arp.o(i.netARP_ClearCache) refers to eventrecorder.o(.text) for EventRecord2
    net_arp.o(i.netARP_ClearCache) refers to net_arp.o(i.arp_que_free) for arp_que_free
    net_arp.o(i.netARP_ClearCache) refers to net_sys.o(i.net_sys_unlock) for net_sys_unlock
    net_arp.o(i.netARP_GetIP) refers to net_sys.o(i.net_if_map_lan) for net_if_map_lan
    net_arp.o(i.netARP_GetIP) refers to net_sys.o(i.net_sys_lock) for net_sys_lock
    net_arp.o(i.netARP_GetIP) refers to eventrecorder.o(.text) for EventRecord2
    net_arp.o(i.netARP_GetIP) refers to net_sys.o(i.net_sys_unlock) for net_sys_unlock
    net_arp.o(i.netARP_GetIP) refers to net_sys.o(.bss) for net_dbg_buf
    net_arp.o(i.netARP_GetMAC) refers to net_sys.o(i.net_if_map_lan) for net_if_map_lan
    net_arp.o(i.netARP_GetMAC) refers to net_sys.o(i.net_sys_lock) for net_sys_lock
    net_arp.o(i.netARP_GetMAC) refers to net_arp.o(i.net_arp_find_mac) for net_arp_find_mac
    net_arp.o(i.netARP_GetMAC) refers to eventrecorder.o(.text) for EventRecordData
    net_arp.o(i.netARP_GetMAC) refers to net_sys.o(i.net_sys_unlock) for net_sys_unlock
    net_arp.o(i.netARP_GetMAC) refers to net_sys.o(.bss) for net_dbg_buf
    net_arp.o(i.netARP_Probe) refers to net_sys.o(i.net_if_map_lan) for net_if_map_lan
    net_arp.o(i.netARP_Probe) refers to net_sys.o(i.net_sys_lock) for net_sys_lock
    net_arp.o(i.netARP_Probe) refers to net_arp.o(i.arp_probe_start) for arp_probe_start
    net_arp.o(i.netARP_Probe) refers to net_sys.o(i.net_sys_unlock) for net_sys_unlock
    net_arp.o(i.netARP_Probe) refers to eventrecorder.o(.text) for EventRecord2
    net_arp.o(i.netARP_ProbeX) refers to net_sys.o(i.net_if_map_lan) for net_if_map_lan
    net_arp.o(i.netARP_ProbeX) refers to net_sys.o(i.net_sys_lock) for net_sys_lock
    net_arp.o(i.netARP_ProbeX) refers to net_arp.o(i.arp_probe_start) for arp_probe_start
    net_arp.o(i.netARP_ProbeX) refers to eventrecorder.o(.text) for EventRecord2
    net_arp.o(i.netARP_ProbeX) refers to net_sys.o(i.net_sys_suspend) for net_sys_suspend
    net_arp.o(i.netARP_ProbeX) refers to net_sys.o(i.net_sys_unlock) for net_sys_unlock
    net_arp.o(i.netARP_ProbeX) refers to net_config.o(.text) for netos_delay
    net_arp.o(i.net_arp_cache_add) refers to net_arp.o(i.arp_is_cacheable) for arp_is_cacheable
    net_arp.o(i.net_arp_cache_add) refers to eventrecorder.o(.text) for EventRecord2
    net_arp.o(i.net_arp_cache_add) refers to net_ip4.o(i.net_ip4_is_onlink) for net_ip4_is_onlink
    net_arp.o(i.net_arp_cache_add) refers to net_arp.o(i.arp_cache_alloc) for arp_cache_alloc
    net_arp.o(i.net_arp_cache_add) refers to net_arp.o(i.arp_que_free) for arp_que_free
    net_arp.o(i.net_arp_cache_add) refers to net_sys.o(.bss) for net_dbg_buf
    net_arp.o(i.net_arp_cache_early) refers to net_arp.o(i.arp_is_cacheable) for arp_is_cacheable
    net_arp.o(i.net_arp_cache_early) refers to net_ip4.o(i.net_ip4_is_onlink) for net_ip4_is_onlink
    net_arp.o(i.net_arp_cache_early) refers to eventrecorder.o(.text) for EventRecordData
    net_arp.o(i.net_arp_cache_early) refers to net_arp.o(i.arp_cache_alloc) for arp_cache_alloc
    net_arp.o(i.net_arp_cache_early) refers to net_arp.o(i.arp_que_free) for arp_que_free
    net_arp.o(i.net_arp_cache_early) refers to net_arp.o(i.arp_send_request) for arp_send_request
    net_arp.o(i.net_arp_cache_early) refers to net_sys.o(.bss) for net_dbg_buf
    net_arp.o(i.net_arp_cache_find) refers to eventrecorder.o(.text) for EventRecord2
    net_arp.o(i.net_arp_cache_find) refers to net_ip4.o(i.net_ip4_is_onlink) for net_ip4_is_onlink
    net_arp.o(i.net_arp_cache_find) refers to net_arp.o(i.arp_cache_alloc) for arp_cache_alloc
    net_arp.o(i.net_arp_cache_find) refers to net_arp.o(i.arp_que_free) for arp_que_free
    net_arp.o(i.net_arp_cache_find) refers to net_sys.o(.bss) for net_dbg_buf
    net_arp.o(i.net_arp_cache_find) refers to net_addr.o(.constdata) for net_addr_bcast
    net_arp.o(i.net_arp_cache_init) refers to eventrecorder.o(.text) for EventRecord2
    net_arp.o(i.net_arp_cache_init) refers to memseta.o(.text) for __aeabi_memclr4
    net_arp.o(i.net_arp_cache_init) refers to net_config.o(.constdata) for net_arp_list
    net_arp.o(i.net_arp_cache_run) refers to net_arp.o(i.arp_cache_run) for arp_cache_run
    net_arp.o(i.net_arp_cache_run) refers to net_config.o(.constdata) for net_arp_list
    net_arp.o(i.net_arp_cache_uninit) refers to eventrecorder.o(.text) for EventRecord2
    net_arp.o(i.net_arp_cache_uninit) refers to memseta.o(.text) for __aeabi_memclr4
    net_arp.o(i.net_arp_cache_uninit) refers to net_config.o(.constdata) for net_arp_list
    net_arp.o(i.net_arp_enqueue) refers to net_mem.o(i.net_mem_avail) for net_mem_avail
    net_arp.o(i.net_arp_enqueue) refers to net_mem.o(i.net_mem_alloc) for net_mem_alloc
    net_arp.o(i.net_arp_enqueue) refers to memcpya.o(.text) for __aeabi_memcpy
    net_arp.o(i.net_arp_enqueue) refers to eventrecorder.o(.text) for EventRecord2
    net_arp.o(i.net_arp_enqueue) refers to net_arp.o(i.arp_send_request) for arp_send_request
    net_arp.o(i.net_arp_notify) refers to net_arp.o(i.arp_send_request) for arp_send_request
    net_arp.o(i.net_arp_probe) refers to net_arp.o(i.arp_send_request) for arp_send_request
    net_arp.o(i.net_arp_process) refers to eventrecorder.o(.text) for EventRecord2
    net_arp.o(i.net_arp_process) refers to net_arp.o(i.arp_sender_valid) for arp_sender_valid
    net_arp.o(i.net_arp_process) refers to net_arp.o(i.net_arp_cache_add) for net_arp_cache_add
    net_arp.o(i.net_arp_process) refers to net_arp.o(i.arp_send_reply) for arp_send_reply
    net_arp.o(i.net_arp_process) refers to net_sys.o(i.net_sys_resume) for net_sys_resume
    net_arp.o(i.net_arp_process) refers to net_arp.o(i.arp_proc_response) for arp_proc_response
    net_arp.o(i.net_arp_process) refers to net_sys.o(.bss) for net_dbg_buf
    net_loopback.o(i.net_loop_iface_init) refers to eventrecorder.o(.text) for EventRecord2
    net_loopback.o(i.net_loop_iface_init) refers to net_ip4.o(i.net_ip4_init) for net_ip4_init
    net_loopback.o(i.net_loop_iface_init) refers to net_icmp.o(i.net_icmp_init) for net_icmp_init
    net_loopback.o(i.net_loop_iface_init) refers to net_ip6.o(i.net_ip6_init) for net_ip6_init
    net_loopback.o(i.net_loop_iface_init) refers to net_icmp6.o(i.net_icmp6_init) for net_icmp6_init
    net_loopback.o(i.net_loop_iface_init) refers to net_loopback.o(.constdata) for .constdata
    net_loopback.o(i.net_loop_iface_run) refers to eventrecorder.o(.text) for EventRecord2
    net_loopback.o(i.net_loop_iface_run) refers to net_ip4.o(i.net_ip4_chk_frame) for net_ip4_chk_frame
    net_loopback.o(i.net_loop_iface_run) refers to net_icmp.o(i.net_icmp_process) for net_icmp_process
    net_loopback.o(i.net_loop_iface_run) refers to net_ip6.o(i.net_ip6_chk_frame) for net_ip6_chk_frame
    net_loopback.o(i.net_loop_iface_run) refers to net_icmp6.o(i.net_icmp6_process) for net_icmp6_process
    net_loopback.o(i.net_loop_iface_run) refers to net_udp.o(i.net_udp_process) for net_udp_process
    net_loopback.o(i.net_loop_iface_run) refers to net_tcp.o(i.net_tcp_process) for net_tcp_process
    net_loopback.o(i.net_loop_iface_run) refers to net_mem.o(i.net_mem_free) for net_mem_free
    net_loopback.o(i.net_loop_iface_run) refers to net_loopback.o(.constdata) for .constdata
    net_loopback.o(i.net_loop_iface_run) refers to net_sys.o(.bss) for net_sys_control
    net_loopback.o(i.net_loop_iface_uninit) refers to eventrecorder.o(.text) for EventRecord2
    net_loopback.o(i.net_loop_iface_uninit) refers to net_ip4.o(i.net_ip4_uninit) for net_ip4_uninit
    net_loopback.o(i.net_loop_iface_uninit) refers to net_ip6.o(i.net_ip6_uninit) for net_ip6_uninit
    net_loopback.o(i.net_loop_iface_uninit) refers to net_loopback.o(.constdata) for .constdata
    net_loopback.o(i.net_loop_send_frame) refers to eventrecorder.o(.text) for EventRecord2
    net_loopback.o(i.net_loop_send_frame) refers to net_mem.o(i.net_mem_alloc) for net_mem_alloc
    net_loopback.o(i.net_loop_send_frame) refers to memcpya.o(.text) for __aeabi_memcpy
    net_loopback.o(i.net_loop_send_frame) refers to net_sys.o(i.net_sys_wakeup) for net_sys_wakeup
    net_loopback.o(i.net_loop_send_frame) refers to net_loopback.o(.constdata) for .constdata
    net_loopback.o(.constdata) refers to net_loopback.o(i.net_loop_send_frame) for net_loop_send_frame
    net_loopback.o(.constdata) refers to net_loopback.o(.data) for loop_control
    net_loopback.o(.constdata) refers to net_loopback.o(.constdata) for net_loop_if_config
    net_ip4_frag.o(i.frag_map_session) refers to net_ip4_frag.o(i.que_free_list) for que_free_list
    net_ip4_frag.o(i.frag_map_session) refers to net_config.o(.constdata) for net_ip4_frag_config
    net_ip4_frag.o(i.net_ip4_frag_add) refers to net_ip4_frag.o(i.frag_map_session) for frag_map_session
    net_ip4_frag.o(i.net_ip4_frag_add) refers to net_ip4_frag.o(i.que_free_list) for que_free_list
    net_ip4_frag.o(i.net_ip4_frag_add) refers to net_mem.o(i.net_mem_free) for net_mem_free
    net_ip4_frag.o(i.net_ip4_frag_add) refers to net_mem.o(i.net_mem_alloc) for net_mem_alloc
    net_ip4_frag.o(i.net_ip4_frag_add) refers to memcpya.o(.text) for __aeabi_memcpy
    net_ip4_frag.o(i.net_ip4_frag_add) refers to net_config.o(.constdata) for net_ip4_frag_config
    net_ip4_frag.o(i.net_ip4_frag_add) refers to net_sys.o(.bss) for net_sys_control
    net_ip4_frag.o(i.net_ip4_frag_get) refers to net_mem.o(i.net_mem_free) for net_mem_free
    net_ip4_frag.o(i.net_ip4_frag_get) refers to net_mem.o(i.net_mem_alloc) for net_mem_alloc
    net_ip4_frag.o(i.net_ip4_frag_get) refers to memcpya.o(.text) for __aeabi_memcpy
    net_ip4_frag.o(i.net_ip4_frag_get) refers to net_ip4_frag.o(.data) for .data
    net_ip4_frag.o(i.net_ip4_frag_init) refers to memseta.o(.text) for __aeabi_memclr4
    net_ip4_frag.o(i.net_ip4_frag_init) refers to net_config.o(.constdata) for net_ip4_frag_config
    net_ip4_frag.o(i.net_ip4_frag_run) refers to net_ip4_frag.o(i.que_free_list) for que_free_list
    net_ip4_frag.o(i.net_ip4_frag_run) refers to net_sys.o(.bss) for net_sys_control
    net_ip4_frag.o(i.net_ip4_frag_run) refers to net_config.o(.constdata) for net_ip4_frag_config
    net_ip4_frag.o(i.net_ip4_frag_uninit) refers to memseta.o(.text) for __aeabi_memclr4
    net_ip4_frag.o(i.net_ip4_frag_uninit) refers to net_config.o(.constdata) for net_ip4_frag_config
    net_ip4_frag.o(i.que_free_list) refers to net_mem.o(i.net_mem_free) for net_mem_free
    net_icmp.o(i.netICMP_SetNoEcho) refers to net_sys.o(i.net_if_map_all) for net_if_map_all
    net_icmp.o(i.net_icmp_init) refers to net_config.o(.constdata) for net_icmp_list
    net_icmp.o(i.net_icmp_process) refers to net_ip4.o(i.net_ip4_chksum_buf) for net_ip4_chksum_buf
    net_icmp.o(i.net_icmp_process) refers to eventrecorder.o(.text) for EventRecord2
    net_icmp.o(i.net_icmp_process) refers to net_mem.o(i.net_mem_alloc) for net_mem_alloc
    net_icmp.o(i.net_icmp_process) refers to memcpya.o(.text) for __aeabi_memcpy
    net_icmp.o(i.net_icmp_process) refers to net_ip4.o(i.net_ip4_send_frame) for net_ip4_send_frame
    net_icmp.o(i.net_icmp_process) refers to net_mem.o(i.net_mem_free) for net_mem_free
    net_icmp.o(i.net_icmp_process) refers to memcmp.o(.text) for memcmp
    net_icmp.o(i.net_icmp_process) refers to net_sys.o(.bss) for net_sys_control
    net_icmp.o(i.net_icmp_process) refers to net_ping_core.o(.bss) for net_ping_control
    net_icmp.o(i.net_icmp_process) refers to net_sys.o(.bss) for net_dbg_buf
    net_icmp.o(i.net_icmp_process) refers to net_ping_core.o(.constdata) for net_ping_payload
    net_icmp.o(i.net_icmp_send_echo) refers to net_mem.o(i.net_mem_alloc) for net_mem_alloc
    net_icmp.o(i.net_icmp_send_echo) refers to memcpya.o(.text) for __aeabi_memcpy
    net_icmp.o(i.net_icmp_send_echo) refers to net_ip4.o(i.net_ip4_tx_offl_hl) for net_ip4_tx_offl_hl
    net_icmp.o(i.net_icmp_send_echo) refers to net_ip4.o(i.net_ip4_chksum_buf) for net_ip4_chksum_buf
    net_icmp.o(i.net_icmp_send_echo) refers to eventrecorder.o(.text) for EventRecord2
    net_icmp.o(i.net_icmp_send_echo) refers to net_ip4.o(i.net_ip4_send_frame) for net_ip4_send_frame
    net_icmp.o(i.net_icmp_send_echo) refers to net_mem.o(i.net_mem_free) for net_mem_free
    net_icmp.o(i.net_icmp_send_echo) refers to net_ping_core.o(.bss) for net_ping_control
    net_icmp.o(i.net_icmp_send_echo) refers to net_ping_core.o(.constdata) for net_ping_payload
    net_udp.o(i.netUDP_Close) refers to net_sys.o(i.net_sys_lock) for net_sys_lock
    net_udp.o(i.netUDP_Close) refers to net_udp.o(i.net_udp_close) for net_udp_close
    net_udp.o(i.netUDP_Close) refers to net_sys.o(i.net_sys_unlock) for net_sys_unlock
    net_udp.o(i.netUDP_GetBuffer) refers to net_udp.o(i.net_udp_get_buf) for net_udp_get_buf
    net_udp.o(i.netUDP_GetLocalPort) refers to net_udp.o(i.net_udp_get_local_port) for net_udp_get_local_port
    net_udp.o(i.netUDP_GetSocket) refers to net_sys.o(i.net_sys_lock) for net_sys_lock
    net_udp.o(i.netUDP_GetSocket) refers to net_udp.o(i.net_udp_get_socket) for net_udp_get_socket
    net_udp.o(i.netUDP_GetSocket) refers to net_sys.o(i.net_sys_unlock) for net_sys_unlock
    net_udp.o(i.netUDP_Open) refers to net_sys.o(i.net_sys_lock) for net_sys_lock
    net_udp.o(i.netUDP_Open) refers to net_udp.o(i.net_udp_open) for net_udp_open
    net_udp.o(i.netUDP_Open) refers to net_sys.o(i.net_sys_unlock) for net_sys_unlock
    net_udp.o(i.netUDP_ReleaseSocket) refers to net_sys.o(i.net_sys_lock) for net_sys_lock
    net_udp.o(i.netUDP_ReleaseSocket) refers to net_udp.o(i.net_udp_release_socket) for net_udp_release_socket
    net_udp.o(i.netUDP_ReleaseSocket) refers to net_sys.o(i.net_sys_unlock) for net_sys_unlock
    net_udp.o(i.netUDP_Send) refers to net_sys.o(i.net_sys_lock) for net_sys_lock
    net_udp.o(i.netUDP_Send) refers to net_udp.o(i.net_udp_send_if) for net_udp_send_if
    net_udp.o(i.netUDP_Send) refers to net_sys.o(i.net_sys_unlock) for net_sys_unlock
    net_udp.o(i.netUDP_SetOption) refers to net_sys.o(i.net_sys_lock) for net_sys_lock
    net_udp.o(i.netUDP_SetOption) refers to net_udp.o(i.net_udp_set_option) for net_udp_set_option
    net_udp.o(i.netUDP_SetOption) refers to net_sys.o(i.net_sys_unlock) for net_sys_unlock
    net_udp.o(i.net_udp_close) refers to eventrecorder.o(.text) for EventRecord2
    net_udp.o(i.net_udp_close) refers to net_config.o(.constdata) for net_udp_config
    net_udp.o(i.net_udp_enable_lla) refers to net_config.o(.constdata) for net_udp_config
    net_udp.o(i.net_udp_free_buf) refers to net_mem.o(i.net_mem_free) for net_mem_free
    net_udp.o(i.net_udp_get_buf) refers to net_mem.o(i.net_mem_alloc) for net_mem_alloc
    net_udp.o(i.net_udp_get_buf) refers to eventrecorder.o(.text) for EventRecord2
    net_udp.o(i.net_udp_get_local_port) refers to net_config.o(.constdata) for net_udp_config
    net_udp.o(i.net_udp_get_option) refers to net_config.o(.constdata) for net_udp_config
    net_udp.o(i.net_udp_get_socket) refers to eventrecorder.o(.text) for EventRecord2
    net_udp.o(i.net_udp_get_socket) refers to net_config.o(.constdata) for net_udp_config
    net_udp.o(i.net_udp_keep_buf) refers to net_config.o(.constdata) for net_udp_config
    net_udp.o(i.net_udp_open) refers to eventrecorder.o(.text) for EventRecord2
    net_udp.o(i.net_udp_open) refers to net_udp.o(i.udp_port_in_use) for udp_port_in_use
    net_udp.o(i.net_udp_open) refers to net_config.o(.constdata) for net_udp_config
    net_udp.o(i.net_udp_open) refers to net_udp.o(.data) for .data
    net_udp.o(i.net_udp_process) refers to eventrecorder.o(.text) for EventRecord2
    net_udp.o(i.net_udp_process) refers to net_ip6.o(i.net_ip6_chksum) for net_ip6_chksum
    net_udp.o(i.net_udp_process) refers to net_ip4.o(i.net_ip4_chksum) for net_ip4_chksum
    net_udp.o(i.net_udp_process) refers to net_addr.o(i.net_addr6_copy) for net_addr6_copy
    net_udp.o(i.net_udp_process) refers to net_config.o(.constdata) for net_udp_config
    net_udp.o(i.net_udp_process) refers to net_sys.o(.bss) for net_sys_control
    net_udp.o(i.net_udp_process) refers to net_udp.o(.bss) for .bss
    net_udp.o(i.net_udp_release_socket) refers to eventrecorder.o(.text) for EventRecord2
    net_udp.o(i.net_udp_release_socket) refers to net_config.o(.constdata) for net_udp_config
    net_udp.o(i.net_udp_send) refers to net_udp.o(i.net_udp_send_if) for net_udp_send_if
    net_udp.o(i.net_udp_send_if) refers to eventrecorder.o(.text) for EventRecord2
    net_udp.o(i.net_udp_send_if) refers to net_mem.o(i.net_mem_free) for net_mem_free
    net_udp.o(i.net_udp_send_if) refers to net_addr.o(i.net_addr_is_unspec) for net_addr_is_unspec
    net_udp.o(i.net_udp_send_if) refers to net_addr.o(i.net_addr_find_route) for net_addr_find_route
    net_udp.o(i.net_udp_send_if) refers to net_addr.o(i.net_addr_get_local) for net_addr_get_local
    net_udp.o(i.net_udp_send_if) refers to net_ip6.o(i.net_ip6_tx_offl_hl) for net_ip6_tx_offl_hl
    net_udp.o(i.net_udp_send_if) refers to net_ip4.o(i.net_ip4_tx_offl_hl) for net_ip4_tx_offl_hl
    net_udp.o(i.net_udp_send_if) refers to net_ip4.o(i.net_ip4_chksum) for net_ip4_chksum
    net_udp.o(i.net_udp_send_if) refers to net_ip6.o(i.net_ip6_chksum) for net_ip6_chksum
    net_udp.o(i.net_udp_send_if) refers to net_ip4.o(i.net_ip4_send_frame) for net_ip4_send_frame
    net_udp.o(i.net_udp_send_if) refers to net_ip6.o(i.net_ip6_send_frame) for net_ip6_send_frame
    net_udp.o(i.net_udp_send_if) refers to net_config.o(.constdata) for net_udp_config
    net_udp.o(i.net_udp_send_if) refers to net_addr.o(.constdata) for net_addr_bcast
    net_udp.o(i.net_udp_set_option) refers to eventrecorder.o(.text) for EventRecord2
    net_udp.o(i.net_udp_set_option) refers to net_sys.o(i.net_if_map_lan) for net_if_map_lan
    net_udp.o(i.net_udp_set_option) refers to net_config.o(.constdata) for net_udp_config
    net_udp.o(i.net_udp_socket_init) refers to eventrecorder.o(.text) for EventRecord2
    net_udp.o(i.net_udp_socket_init) refers to memseta.o(.text) for __aeabi_memclr4
    net_udp.o(i.net_udp_socket_init) refers to net_config.o(.constdata) for net_udp_config
    net_udp.o(i.net_udp_socket_uninit) refers to eventrecorder.o(.text) for EventRecord2
    net_udp.o(i.net_udp_socket_uninit) refers to memseta.o(.text) for __aeabi_memclr4
    net_udp.o(i.net_udp_socket_uninit) refers to net_config.o(.constdata) for net_udp_config
    net_udp.o(i.udp_port_in_use) refers to net_config.o(.constdata) for net_udp_config
    net_tcp.o(i.netTCP_Abort) refers to net_sys.o(i.net_sys_lock) for net_sys_lock
    net_tcp.o(i.netTCP_Abort) refers to net_tcp.o(i.net_tcp_abort) for net_tcp_abort
    net_tcp.o(i.netTCP_Abort) refers to net_sys.o(i.net_sys_unlock) for net_sys_unlock
    net_tcp.o(i.netTCP_Close) refers to net_sys.o(i.net_sys_lock) for net_sys_lock
    net_tcp.o(i.netTCP_Close) refers to net_tcp.o(i.net_tcp_close) for net_tcp_close
    net_tcp.o(i.netTCP_Close) refers to net_sys.o(i.net_sys_unlock) for net_sys_unlock
    net_tcp.o(i.netTCP_Connect) refers to net_sys.o(i.net_sys_lock) for net_sys_lock
    net_tcp.o(i.netTCP_Connect) refers to net_tcp.o(i.net_tcp_connect) for net_tcp_connect
    net_tcp.o(i.netTCP_Connect) refers to net_sys.o(i.net_sys_unlock) for net_sys_unlock
    net_tcp.o(i.netTCP_GetBuffer) refers to net_tcp.o(i.net_tcp_get_buf) for net_tcp_get_buf
    net_tcp.o(i.netTCP_GetLocalPort) refers to net_tcp.o(i.net_tcp_get_local_port) for net_tcp_get_local_port
    net_tcp.o(i.netTCP_GetMaxSegmentSize) refers to net_tcp.o(i.net_tcp_get_mss) for net_tcp_get_mss
    net_tcp.o(i.netTCP_GetPeer) refers to net_sys.o(i.net_sys_lock) for net_sys_lock
    net_tcp.o(i.netTCP_GetPeer) refers to net_tcp.o(i.net_tcp_get_peer) for net_tcp_get_peer
    net_tcp.o(i.netTCP_GetPeer) refers to net_sys.o(i.net_sys_unlock) for net_sys_unlock
    net_tcp.o(i.netTCP_GetSocket) refers to net_sys.o(i.net_sys_lock) for net_sys_lock
    net_tcp.o(i.netTCP_GetSocket) refers to net_tcp.o(i.net_tcp_get_socket) for net_tcp_get_socket
    net_tcp.o(i.netTCP_GetSocket) refers to net_sys.o(i.net_sys_unlock) for net_sys_unlock
    net_tcp.o(i.netTCP_GetState) refers to net_tcp.o(i.net_tcp_get_state) for net_tcp_get_state
    net_tcp.o(i.netTCP_GetTimer) refers to net_tcp.o(i.net_tcp_get_timer) for net_tcp_get_timer
    net_tcp.o(i.netTCP_Listen) refers to net_sys.o(i.net_sys_lock) for net_sys_lock
    net_tcp.o(i.netTCP_Listen) refers to net_tcp.o(i.net_tcp_listen) for net_tcp_listen
    net_tcp.o(i.netTCP_Listen) refers to net_sys.o(i.net_sys_unlock) for net_sys_unlock
    net_tcp.o(i.netTCP_ReleaseSocket) refers to net_sys.o(i.net_sys_lock) for net_sys_lock
    net_tcp.o(i.netTCP_ReleaseSocket) refers to net_tcp.o(i.net_tcp_release_socket) for net_tcp_release_socket
    net_tcp.o(i.netTCP_ReleaseSocket) refers to net_sys.o(i.net_sys_unlock) for net_sys_unlock
    net_tcp.o(i.netTCP_ResetReceiveWindow) refers to net_sys.o(i.net_sys_lock) for net_sys_lock
    net_tcp.o(i.netTCP_ResetReceiveWindow) refers to net_tcp.o(i.net_tcp_reset_window) for net_tcp_reset_window
    net_tcp.o(i.netTCP_ResetReceiveWindow) refers to net_sys.o(i.net_sys_unlock) for net_sys_unlock
    net_tcp.o(i.netTCP_Send) refers to net_sys.o(i.net_sys_lock) for net_sys_lock
    net_tcp.o(i.netTCP_Send) refers to net_tcp.o(i.net_tcp_send) for net_tcp_send
    net_tcp.o(i.netTCP_Send) refers to net_sys.o(i.net_sys_wakeup) for net_sys_wakeup
    net_tcp.o(i.netTCP_Send) refers to net_sys.o(i.net_sys_unlock) for net_sys_unlock
    net_tcp.o(i.netTCP_SendReady) refers to net_tcp.o(i.net_tcp_check_send) for net_tcp_check_send
    net_tcp.o(i.netTCP_SetOption) refers to net_sys.o(i.net_sys_lock) for net_sys_lock
    net_tcp.o(i.netTCP_SetOption) refers to net_tcp.o(i.net_tcp_set_option) for net_tcp_set_option
    net_tcp.o(i.netTCP_SetOption) refers to net_sys.o(i.net_sys_unlock) for net_sys_unlock
    net_tcp.o(i.net_tcp_abort) refers to eventrecorder.o(.text) for EventRecord2
    net_tcp.o(i.net_tcp_abort) refers to net_tcp.o(i.tcp_transit) for tcp_transit
    net_tcp.o(i.net_tcp_abort) refers to net_tcp.o(i.tcp_send_ctrl) for tcp_send_ctrl
    net_tcp.o(i.net_tcp_abort) refers to net_config.o(.constdata) for net_tcp_config
    net_tcp.o(i.net_tcp_alloc_port) refers to net_tcp.o(.data) for .data
    net_tcp.o(i.net_tcp_alloc_port) refers to net_config.o(.constdata) for net_tcp_config
    net_tcp.o(i.net_tcp_check_send) refers to eventrecorder.o(.text) for EventRecord2
    net_tcp.o(i.net_tcp_check_send) refers to net_config.o(.constdata) for net_tcp_config
    net_tcp.o(i.net_tcp_close) refers to eventrecorder.o(.text) for EventRecord2
    net_tcp.o(i.net_tcp_close) refers to net_tcp.o(i.tcp_transit) for tcp_transit
    net_tcp.o(i.net_tcp_close) refers to net_tcp.o(i.tcp_send_ctrl) for tcp_send_ctrl
    net_tcp.o(i.net_tcp_close) refers to net_config.o(.constdata) for net_tcp_config
    net_tcp.o(i.net_tcp_connect) refers to eventrecorder.o(.text) for EventRecord2
    net_tcp.o(i.net_tcp_connect) refers to net_addr.o(i.net_addr_is_unspec) for net_addr_is_unspec
    net_tcp.o(i.net_tcp_connect) refers to net_tcp.o(i.net_tcp_alloc_port) for net_tcp_alloc_port
    net_tcp.o(i.net_tcp_connect) refers to net_addr.o(i.net_addr_find_route) for net_addr_find_route
    net_tcp.o(i.net_tcp_connect) refers to net_addr.o(i.net_addr_copy) for net_addr_copy
    net_tcp.o(i.net_tcp_connect) refers to net_addr.o(i.net_addr_get_local) for net_addr_get_local
    net_tcp.o(i.net_tcp_connect) refers to net_sys.o(i.net_rand32) for net_rand32
    net_tcp.o(i.net_tcp_connect) refers to net_tcp.o(i.tcp_send_ctrl) for tcp_send_ctrl
    net_tcp.o(i.net_tcp_connect) refers to net_tcp.o(i.tcp_transit) for tcp_transit
    net_tcp.o(i.net_tcp_connect) refers to net_config.o(.constdata) for net_tcp_config
    net_tcp.o(i.net_tcp_ctrl_opt) refers to net_config.o(.constdata) for net_tcp_config
    net_tcp.o(i.net_tcp_get_buf) refers to net_mem.o(i.net_mem_alloc) for net_mem_alloc
    net_tcp.o(i.net_tcp_get_buf) refers to eventrecorder.o(.text) for EventRecord2
    net_tcp.o(i.net_tcp_get_local_addr) refers to net_config.o(.constdata) for net_tcp_config
    net_tcp.o(i.net_tcp_get_local_port) refers to net_config.o(.constdata) for net_tcp_config
    net_tcp.o(i.net_tcp_get_mss) refers to net_config.o(.constdata) for net_tcp_config
    net_tcp.o(i.net_tcp_get_option) refers to net_config.o(.constdata) for net_tcp_config
    net_tcp.o(i.net_tcp_get_peer) refers to net_addr.o(i.net_addr_copy) for net_addr_copy
    net_tcp.o(i.net_tcp_get_peer) refers to net_config.o(.constdata) for net_tcp_config
    net_tcp.o(i.net_tcp_get_peer_ptr) refers to net_config.o(.constdata) for net_tcp_config
    net_tcp.o(i.net_tcp_get_socket) refers to eventrecorder.o(.text) for EventRecord2
    net_tcp.o(i.net_tcp_get_socket) refers to net_config.o(.constdata) for net_tcp_config
    net_tcp.o(i.net_tcp_get_state) refers to net_config.o(.constdata) for net_tcp_config
    net_tcp.o(i.net_tcp_get_timer) refers to net_config.o(.constdata) for net_tcp_config
    net_tcp.o(i.net_tcp_listen) refers to eventrecorder.o(.text) for EventRecord2
    net_tcp.o(i.net_tcp_listen) refers to memseta.o(.text) for __aeabi_memclr4
    net_tcp.o(i.net_tcp_listen) refers to net_config.o(.constdata) for net_tcp_config
    net_tcp.o(i.net_tcp_ntoa) refers to net_tcp.o(.constdata) for .constdata
    net_tcp.o(i.net_tcp_process) refers to eventrecorder.o(.text) for EventRecord2
    net_tcp.o(i.net_tcp_process) refers to net_tcp.o(i.tcp_map_socket) for tcp_map_socket
    net_tcp.o(i.net_tcp_process) refers to net_ip6.o(i.net_ip6_chksum) for net_ip6_chksum
    net_tcp.o(i.net_tcp_process) refers to net_ip4.o(i.net_ip4_chksum) for net_ip4_chksum
    net_tcp.o(i.net_tcp_process) refers to net_tcp.o(i.tcp_proc_dupack) for tcp_proc_dupack
    net_tcp.o(i.net_tcp_process) refers to net_tcp.o(i.tcp_proc_acknr) for tcp_proc_acknr
    net_tcp.o(i.net_tcp_process) refers to net_tcp.o(i.tcp_transit) for tcp_transit
    net_tcp.o(i.net_tcp_process) refers to net_tcp.o(i.tcp_send_ctrl) for tcp_send_ctrl
    net_tcp.o(i.net_tcp_process) refers to net_tcp.o(i.tcp_parse_opt) for tcp_parse_opt
    net_tcp.o(i.net_tcp_process) refers to net_sys.o(i.net_rand32) for net_rand32
    net_tcp.o(i.net_tcp_process) refers to net_sys.o(.bss) for net_sys_control
    net_tcp.o(i.net_tcp_process) refers to net_config.o(.constdata) for net_tcp_config
    net_tcp.o(i.net_tcp_process) refers to net_tcp.o(i.tcp_send_reset) for tcp_send_reset
    net_tcp.o(i.net_tcp_process) refers to net_tcp.o(i.tcp_set_cwnd) for tcp_set_cwnd
    net_tcp.o(i.net_tcp_process) refers to net_config.o(.text) for net_sys_error
    net_tcp.o(i.net_tcp_release_socket) refers to eventrecorder.o(.text) for EventRecord2
    net_tcp.o(i.net_tcp_release_socket) refers to memseta.o(.text) for __aeabi_memclr4
    net_tcp.o(i.net_tcp_release_socket) refers to net_config.o(.constdata) for net_tcp_config
    net_tcp.o(i.net_tcp_reset_tout) refers to net_config.o(.constdata) for net_tcp_config
    net_tcp.o(i.net_tcp_reset_window) refers to eventrecorder.o(.text) for EventRecord2
    net_tcp.o(i.net_tcp_reset_window) refers to net_tcp.o(i.tcp_send_ctrl) for tcp_send_ctrl
    net_tcp.o(i.net_tcp_reset_window) refers to net_config.o(.constdata) for net_tcp_config
    net_tcp.o(i.net_tcp_send) refers to eventrecorder.o(.text) for EventRecord2
    net_tcp.o(i.net_tcp_send) refers to net_mem.o(i.net_mem_shrink) for net_mem_shrink
    net_tcp.o(i.net_tcp_send) refers to net_tcp.o(i.tcp_send_data) for tcp_send_data
    net_tcp.o(i.net_tcp_send) refers to net_mem.o(i.net_mem_free) for net_mem_free
    net_tcp.o(i.net_tcp_send) refers to net_config.o(.constdata) for net_tcp_config
    net_tcp.o(i.net_tcp_send) refers to net_sys.o(.bss) for net_sys_control
    net_tcp.o(i.net_tcp_set_cb) refers to net_config.o(.constdata) for net_tcp_config
    net_tcp.o(i.net_tcp_set_option) refers to eventrecorder.o(.text) for EventRecord2
    net_tcp.o(i.net_tcp_set_option) refers to net_config.o(.constdata) for net_tcp_config
    net_tcp.o(i.net_tcp_socket_init) refers to eventrecorder.o(.text) for EventRecord2
    net_tcp.o(i.net_tcp_socket_init) refers to memseta.o(.text) for __aeabi_memclr4
    net_tcp.o(i.net_tcp_socket_init) refers to net_config.o(.constdata) for net_tcp_config
    net_tcp.o(i.net_tcp_socket_run) refers to net_tcp.o(i.tcp_send_ctrl) for tcp_send_ctrl
    net_tcp.o(i.net_tcp_socket_run) refers to eventrecorder.o(.text) for EventRecord2
    net_tcp.o(i.net_tcp_socket_run) refers to net_tcp.o(i.tcp_que_resend) for tcp_que_resend
    net_tcp.o(i.net_tcp_socket_run) refers to net_mem.o(i.net_mem_avail) for net_mem_avail
    net_tcp.o(i.net_tcp_socket_run) refers to net_tcp.o(i.tcp_que_init) for tcp_que_init
    net_tcp.o(i.net_tcp_socket_run) refers to net_tcp.o(i.tcp_que_free) for tcp_que_free
    net_tcp.o(i.net_tcp_socket_run) refers to net_tcp.o(i.tcp_transit) for tcp_transit
    net_tcp.o(i.net_tcp_socket_run) refers to net_sys.o(.bss) for net_sys_control
    net_tcp.o(i.net_tcp_socket_run) refers to net_config.o(.constdata) for net_tcp_config
    net_tcp.o(i.net_tcp_socket_run) refers to net_tcp.o(.data) for .data
    net_tcp.o(i.net_tcp_socket_uninit) refers to eventrecorder.o(.text) for EventRecord2
    net_tcp.o(i.net_tcp_socket_uninit) refers to memseta.o(.text) for __aeabi_memclr4
    net_tcp.o(i.net_tcp_socket_uninit) refers to net_config.o(.constdata) for net_tcp_config
    net_tcp.o(i.tcp_map_socket) refers to net_addr.o(i.net_addr6_comp) for net_addr6_comp
    net_tcp.o(i.tcp_map_socket) refers to net_addr.o(i.net_addr6_copy) for net_addr6_copy
    net_tcp.o(i.tcp_map_socket) refers to eventrecorder.o(.text) for EventRecord2
    net_tcp.o(i.tcp_map_socket) refers to net_config.o(.constdata) for net_tcp_config
    net_tcp.o(i.tcp_map_socket) refers to net_sys.o(.bss) for net_sys_control
    net_tcp.o(i.tcp_parse_opt) refers to eventrecorder.o(.text) for EventRecord2
    net_tcp.o(i.tcp_proc_acknr) refers to eventrecorder.o(.text) for EventRecord2
    net_tcp.o(i.tcp_proc_acknr) refers to net_mem.o(i.net_mem_free) for net_mem_free
    net_tcp.o(i.tcp_proc_acknr) refers to net_sys.o(.bss) for net_sys_control
    net_tcp.o(i.tcp_proc_dupack) refers to eventrecorder.o(.text) for EventRecord2
    net_tcp.o(i.tcp_proc_dupack) refers to net_tcp.o(i.tcp_que_init) for tcp_que_init
    net_tcp.o(i.tcp_que_free) refers to net_mem.o(i.net_mem_free) for net_mem_free
    net_tcp.o(i.tcp_que_resend) refers to net_tcp.o(i.tcp_send_ctrl) for tcp_send_ctrl
    net_tcp.o(i.tcp_que_resend) refers to eventrecorder.o(.text) for EventRecord2
    net_tcp.o(i.tcp_que_resend) refers to net_tcp.o(i.tcp_send_data) for tcp_send_data
    net_tcp.o(i.tcp_que_resend) refers to net_config.o(.constdata) for net_tcp_config
    net_tcp.o(i.tcp_send_ctrl) refers to eventrecorder.o(.text) for EventRecord2
    net_tcp.o(i.tcp_send_ctrl) refers to net_mem.o(i.net_mem_alloc) for net_mem_alloc
    net_tcp.o(i.tcp_send_ctrl) refers to net_tcp.o(i.tcp_write) for tcp_write
    net_tcp.o(i.tcp_send_ctrl) refers to net_mem.o(i.net_mem_free) for net_mem_free
    net_tcp.o(i.tcp_send_data) refers to eventrecorder.o(.text) for EventRecord2
    net_tcp.o(i.tcp_send_data) refers to net_tcp.o(i.tcp_write) for tcp_write
    net_tcp.o(i.tcp_send_reset) refers to eventrecorder.o(.text) for EventRecord2
    net_tcp.o(i.tcp_send_reset) refers to net_mem.o(i.net_mem_alloc) for net_mem_alloc
    net_tcp.o(i.tcp_send_reset) refers to net_tcp.o(i.tcp_write) for tcp_write
    net_tcp.o(i.tcp_send_reset) refers to net_mem.o(i.net_mem_free) for net_mem_free
    net_tcp.o(i.tcp_set_cwnd) refers to eventrecorder.o(.text) for EventRecord2
    net_tcp.o(i.tcp_transit) refers to net_tcp.o(i.tcp_que_free) for tcp_que_free
    net_tcp.o(i.tcp_transit) refers to net_config.o(.constdata) for net_tcp_config
    net_tcp.o(i.tcp_write) refers to net_ip6.o(i.net_ip6_tx_offl_hl) for net_ip6_tx_offl_hl
    net_tcp.o(i.tcp_write) refers to net_ip4.o(i.net_ip4_tx_offl_hl) for net_ip4_tx_offl_hl
    net_tcp.o(i.tcp_write) refers to net_ip4.o(i.net_ip4_get_local) for net_ip4_get_local
    net_tcp.o(i.tcp_write) refers to net_ip4.o(i.net_ip4_chksum) for net_ip4_chksum
    net_tcp.o(i.tcp_write) refers to net_ip6.o(i.net_ip6_chksum) for net_ip6_chksum
    net_tcp.o(i.tcp_write) refers to eventrecorder.o(.text) for EventRecordData
    net_tcp.o(i.tcp_write) refers to net_ip6.o(i.net_ip6_send_frame) for net_ip6_send_frame
    net_tcp.o(i.tcp_write) refers to net_ip4.o(i.net_ip4_send_frame) for net_ip4_send_frame
    net_tcp.o(i.tcp_write) refers to net_config.o(.constdata) for net_tcp_config
    net_tcp.o(.constdata) refers to net_tcp.o(.conststring) for .conststring
    net_nbns_client.o(i.nbns_listener) refers to eventrecorder.o(.text) for EventRecord2
    net_nbns_client.o(i.nbns_listener) refers to net_mem.o(i.net_mem_alloc) for net_mem_alloc
    net_nbns_client.o(i.nbns_listener) refers to net_common.o(i.net_strtoupper) for net_strtoupper
    net_nbns_client.o(i.nbns_listener) refers to memcmp.o(.text) for memcmp
    net_nbns_client.o(i.nbns_listener) refers to net_udp.o(i.net_udp_get_buf) for net_udp_get_buf
    net_nbns_client.o(i.nbns_listener) refers to memcpya.o(.text) for __aeabi_memcpy
    net_nbns_client.o(i.nbns_listener) refers to net_udp.o(i.net_udp_send_if) for net_udp_send_if
    net_nbns_client.o(i.nbns_listener) refers to net_mem.o(i.net_mem_free) for net_mem_free
    net_nbns_client.o(i.nbns_listener) refers to net_nbns_client.o(.data) for .data
    net_nbns_client.o(i.nbns_listener) refers to net_sys.o(.bss) for net_sys_control
    net_nbns_client.o(i.nbns_listener) refers to net_sys.o(.bss) for net_dbg_buf
    net_nbns_client.o(i.nbns_listener) refers to net_nbns_client.o(.constdata) for .constdata
    net_nbns_client.o(i.net_nbns_client_init) refers to eventrecorder.o(.text) for EventRecord2
    net_nbns_client.o(i.net_nbns_client_init) refers to net_udp.o(i.net_udp_get_socket) for net_udp_get_socket
    net_nbns_client.o(i.net_nbns_client_init) refers to net_config.o(.text) for net_sys_error
    net_nbns_client.o(i.net_nbns_client_init) refers to net_udp.o(i.net_udp_open) for net_udp_open
    net_nbns_client.o(i.net_nbns_client_init) refers to net_config.o(.constdata) for net_if_list_lan
    net_nbns_client.o(i.net_nbns_client_init) refers to net_nbns_client.o(i.nbns_listener) for nbns_listener
    net_nbns_client.o(i.net_nbns_client_init) refers to net_nbns_client.o(.data) for .data
    net_nbns_client.o(i.net_nbns_client_uninit) refers to eventrecorder.o(.text) for EventRecord2
    net_nbns_client.o(i.net_nbns_client_uninit) refers to net_config.o(.constdata) for net_if_list_lan
    net_nbns_client.o(i.net_nbns_client_uninit) refers to net_nbns_client.o(.data) for .data
    net_http_server.o(i.add_server_id) refers to net_common.o(i.net_strcpy) for net_strcpy
    net_http_server.o(i.add_server_id) refers to net_config.o(.constdata) for net_http_config
    net_http_server.o(i.chk_post_req) refers to net_common.o(i.net_strcasecmp) for net_strcasecmp
    net_http_server.o(i.chk_post_req) refers to net_common.o(i.net_strcmp) for net_strcmp
    net_http_server.o(i.chk_post_req) refers to net_mem.o(i.net_mem_alloc) for net_mem_alloc
    net_http_server.o(i.chk_post_req) refers to net_http_server.o(i.http_strcpy) for http_strcpy
    net_http_server.o(i.chk_post_req) refers to net_http_server.o(i.get_next_par) for get_next_par
    net_http_server.o(i.chk_post_req) refers to eventrecorder.o(.text) for EventRecordData
    net_http_server.o(i.chk_post_req) refers to net_common.o(i.net_atoi) for net_atoi
    net_http_server.o(i.chk_post_req) refers to net_http_server.o(i.get_next_field) for get_next_field
    net_http_server.o(i.chk_post_req) refers to net_http_server.o(.data) for .data
    net_http_server.o(i.http_add_header) refers to net_http_server.o(i.netCGX_ContentType) for netCGX_ContentType
    net_http_server.o(i.http_add_header) refers to net_common.o(i.net_strcpy) for net_strcpy
    net_http_server.o(i.http_add_header) refers to net_http_server.o(i.add_server_id) for add_server_id
    net_http_server.o(i.http_add_header) refers to net_common.o(i.net_strcmp) for net_strcmp
    net_http_server.o(i.http_add_header) refers to net_http_server.o(i.netCGI_Charset) for netCGI_Charset
    net_http_server.o(i.http_add_header) refers to net_http_server.o(i.utc_to_http) for utc_to_http
    net_http_server.o(i.http_add_header) refers to net_common.o(i.net_ultoa) for net_ultoa
    net_http_server.o(i.http_add_header) refers to net_http_server.o(i.netCGI_CustomHeader) for netCGI_CustomHeader
    net_http_server.o(i.http_error_msg) refers to net_common.o(i.net_strcpy) for net_strcpy
    net_http_server.o(i.http_error_msg) refers to net_http_server.o(i.add_server_id) for add_server_id
    net_http_server.o(i.http_error_msg) refers to net_http_server.o(i.netCGI_CustomHeader) for netCGI_CustomHeader
    net_http_server.o(i.http_error_msg) refers to net_config.o(.constdata) for net_http_config
    net_http_server.o(i.http_error_msg) refers to net_http_server_err.o(.constdata) for net_http_error
    net_http_server.o(i.http_get_ftype) refers to net_common.o(i.net_strcasecmp) for net_strcasecmp
    net_http_server.o(i.http_get_ftype) refers to net_http_server.o(i.netCGI_ContentType) for netCGI_ContentType
    net_http_server.o(i.http_get_ftype) refers to net_http_server.o(.constdata) for .constdata
    net_http_server.o(i.http_kill_session) refers to net_config.o(.text) for netHTTPs_fclose
    net_http_server.o(i.http_kill_session) refers to http_server_cgi.o(.text) for netCGI_ProcessData
    net_http_server.o(i.http_kill_session) refers to net_mem.o(i.net_mem_free) for net_mem_free
    net_http_server.o(i.http_listener) refers to net_http_server.o(i.netHTTPs_AcceptClient) for netHTTPs_AcceptClient
    net_http_server.o(i.http_listener) refers to eventrecorder.o(.text) for EventRecord2
    net_http_server.o(i.http_listener) refers to net_http_server.o(i.http_kill_session) for http_kill_session
    net_http_server.o(i.http_listener) refers to net_common.o(i.net_strcmp) for net_strcmp
    net_http_server.o(i.http_listener) refers to net_http_server.o(i.proc_req_line) for proc_req_line
    net_http_server.o(i.http_listener) refers to net_http_server.o(i.http_get_ftype) for http_get_ftype
    net_http_server.o(i.http_listener) refers to net_http_server.o(i.http_parse_header) for http_parse_header
    net_http_server.o(i.http_listener) refers to net_http_server.o(i.http_open_file) for http_open_file
    net_http_server.o(i.http_listener) refers to http_server_cgi.o(.text) for netCGI_ProcessQuery
    net_http_server.o(i.http_listener) refers to net_http_server.o(i.chk_post_req) for chk_post_req
    net_http_server.o(i.http_listener) refers to net_http_server.o(i.http_proc_post) for http_proc_post
    net_http_server.o(i.http_listener) refers to net_mem.o(i.net_mem_alloc) for net_mem_alloc
    net_http_server.o(i.http_listener) refers to net_http_server.o(i.read_script_line) for read_script_line
    net_http_server.o(i.http_listener) refers to net_http_server.o(i.http_proc_multipart) for http_proc_multipart
    net_http_server.o(i.http_listener) refers to net_config.o(.constdata) for net_http_config
    net_http_server.o(i.http_listener) refers to net_http_server.o(.data) for .data
    net_http_server.o(i.http_open_file) refers to strlen.o(.text) for strlen
    net_http_server.o(i.http_open_file) refers to eventrecorder.o(.text) for EventRecordData
    net_http_server.o(i.http_open_file) refers to net_http_server.o(i.netHTTPs_FileAccess) for netHTTPs_FileAccess
    net_http_server.o(i.http_open_file) refers to net_sys.o(i.net_path) for net_path
    net_http_server.o(i.http_open_file) refers to net_config.o(.text) for netHTTPs_fopen
    net_http_server.o(i.http_open_file) refers to web.o(.text) for imageFileInfo
    net_http_server.o(i.http_open_file) refers to net_http_server.o(i.netCGI_Redirect) for netCGI_Redirect
    net_http_server.o(i.http_open_file) refers to net_http_server.o(.bss) for .bss
    net_http_server.o(i.http_open_file) refers to web.o(.constdata) for imageLastModified
    net_http_server.o(i.http_parse_header) refers to net_common.o(i.net_strcasecmp) for net_strcasecmp
    net_http_server.o(i.http_parse_header) refers to eventrecorder.o(.text) for EventRecordData
    net_http_server.o(i.http_parse_header) refers to net_http_server.o(i.http_to_utc) for http_to_utc
    net_http_server.o(i.http_parse_header) refers to net_http_server.o(i.get_next_field) for get_next_field
    net_http_server.o(i.http_parse_header) refers to net_http_server.o(.bss) for .bss
    net_http_server.o(i.http_parse_header) refers to net_config.o(.constdata) for net_http_config
    net_http_server.o(i.http_parse_header) refers to net_http_server.o(.data) for .data
    net_http_server.o(i.http_proc_multipart) refers to net_http_server.o(i.search_delim) for search_delim
    net_http_server.o(i.http_proc_multipart) refers to net_common.o(i.net_strcasecmp) for net_strcasecmp
    net_http_server.o(i.http_proc_multipart) refers to net_common.o(i.net_strcmp) for net_strcmp
    net_http_server.o(i.http_proc_multipart) refers to net_common.o(i.net_strnchr) for net_strnchr
    net_http_server.o(i.http_proc_multipart) refers to eventrecorder.o(.text) for EventRecordData
    net_http_server.o(i.http_proc_multipart) refers to http_server_cgi.o(.text) for netCGI_ProcessData
    net_http_server.o(i.http_proc_multipart) refers to net_http_server.o(i.get_next_par) for get_next_par
    net_http_server.o(i.http_proc_multipart) refers to net_http_server.o(i.get_next_field) for get_next_field
    net_http_server.o(i.http_proc_multipart) refers to net_http_server.o(.data) for .data
    net_http_server.o(i.http_proc_post) refers to eventrecorder.o(.text) for EventRecord2
    net_http_server.o(i.http_proc_post) refers to http_server_cgi.o(.text) for netCGI_ProcessData
    net_http_server.o(i.http_proc_post) refers to net_mem.o(i.net_mem_alloc) for net_mem_alloc
    net_http_server.o(i.http_proc_post) refers to memcpya.o(.text) for __aeabi_memcpy
    net_http_server.o(i.http_proc_post) refers to net_mem.o(i.net_mem_free) for net_mem_free
    net_http_server.o(i.http_proc_post) refers to net_http_server.o(.data) for .data
    net_http_server.o(i.http_proc_post) refers to net_config.o(.constdata) for net_sys_config
    net_http_server.o(i.http_server_run) refers to net_tcp.o(i.net_tcp_get_state) for net_tcp_get_state
    net_http_server.o(i.http_server_run) refers to net_tcp.o(i.net_tcp_listen) for net_tcp_listen
    net_http_server.o(i.http_server_run) refers to net_mem.o(i.net_mem_avail) for net_mem_avail
    net_http_server.o(i.http_server_run) refers to eventrecorder.o(.text) for EventRecord2
    net_http_server.o(i.http_server_run) refers to net_config.o(.text) for netHTTPs_fclose
    net_http_server.o(i.http_server_run) refers to net_http_server.o(i.read_script_line) for read_script_line
    net_http_server.o(i.http_server_run) refers to net_tcp.o(i.net_tcp_close) for net_tcp_close
    net_http_server.o(i.http_server_run) refers to net_http_server.o(i.http_kill_session) for http_kill_session
    net_http_server.o(i.http_server_run) refers to net_tcp.o(i.net_tcp_get_mss) for net_tcp_get_mss
    net_http_server.o(i.http_server_run) refers to net_tcp.o(i.net_tcp_get_buf) for net_tcp_get_buf
    net_http_server.o(i.http_server_run) refers to net_http_server.o(i.http_add_header) for http_add_header
    net_http_server.o(i.http_server_run) refers to memcpya.o(.text) for __aeabi_memcpy
    net_http_server.o(i.http_server_run) refers to net_tcp.o(i.net_tcp_send) for net_tcp_send
    net_http_server.o(i.http_server_run) refers to net_http_server.o(i.http_strcpy) for http_strcpy
    net_http_server.o(i.http_server_run) refers to http_server_cgi.o(.text) for netCGI_Script
    net_http_server.o(i.http_server_run) refers to net_http_server.o(i.http_open_file) for http_open_file
    net_http_server.o(i.http_server_run) refers to net_tcp.o(i.net_tcp_abort) for net_tcp_abort
    net_http_server.o(i.http_server_run) refers to net_sys.o(.bss) for net_sys_control
    net_http_server.o(i.http_server_run) refers to net_http_server.o(.data) for .data
    net_http_server.o(i.http_server_run) refers to net_config.o(.constdata) for net_http_config
    net_http_server.o(i.http_server_run) refers to net_http_server.o(.bss) for .bss
    net_http_server.o(i.http_server_run) refers to net_http_server.o(i.http_error_msg) for http_error_msg
    net_http_server.o(i.http_server_start) refers to eventrecorder.o(.text) for EventRecord2
    net_http_server.o(i.http_server_start) refers to net_tcp.o(i.net_tcp_listen) for net_tcp_listen
    net_http_server.o(i.http_server_start) refers to net_tcp.o(i.net_tcp_set_option) for net_tcp_set_option
    net_http_server.o(i.http_server_start) refers to net_http_server.o(.bss) for .bss
    net_http_server.o(i.http_server_start) refers to net_config.o(.constdata) for net_http_config
    net_http_server.o(i.http_server_stop) refers to eventrecorder.o(.text) for EventRecord2
    net_http_server.o(i.http_server_stop) refers to net_tcp.o(i.net_tcp_abort) for net_tcp_abort
    net_http_server.o(i.http_server_stop) refers to net_http_server.o(i.http_kill_session) for http_kill_session
    net_http_server.o(i.http_server_stop) refers to net_config.o(.constdata) for net_http_config
    net_http_server.o(i.http_server_stop) refers to net_http_server.o(.bss) for .bss
    net_http_server.o(i.http_to_utc) refers to net_common.o(i.net_atoi) for net_atoi
    net_http_server.o(i.http_to_utc) refers to net_common.o(i.net_strcmp) for net_strcmp
    net_http_server.o(i.http_to_utc) refers to net_http_server.o(.constdata) for .constdata
    net_http_server.o(i.netCGI_GetEnvVar) refers to net_http_server.o(i.hex2byte) for hex2byte
    net_http_server.o(i.netCGI_GetEnvVar) refers to net_http_server.o(.data) for .data
    net_http_server.o(i.netHTTPs_CalcHashHA1) refers to net_common.o(i.net_bin2hex) for net_bin2hex
    net_http_server.o(i.netHTTPs_CalcHashHA1) refers to net_config.o(.constdata) for net_http_config
    net_http_server.o(i.netHTTPs_GetClient) refers to net_tcp.o(i.net_tcp_get_peer) for net_tcp_get_peer
    net_http_server.o(i.netHTTPs_GetClient) refers to net_config.o(.constdata) for net_http_config
    net_http_server.o(i.netHTTPs_GetClient) refers to net_http_server.o(.data) for .data
    net_http_server.o(i.netHTTPs_GetContentType) refers to net_config.o(.constdata) for net_http_config
    net_http_server.o(i.netHTTPs_GetContentType) refers to net_http_server.o(.data) for .data
    net_http_server.o(i.netHTTPs_GetLanguage) refers to net_config.o(.constdata) for net_http_config
    net_http_server.o(i.netHTTPs_GetLanguage) refers to net_http_server.o(.data) for .data
    net_http_server.o(i.netHTTPs_GetPassword) refers to net_http_server.o(.bss) for .bss
    net_http_server.o(i.netHTTPs_GetPort) refers to net_http_server.o(.bss) for .bss
    net_http_server.o(i.netHTTPs_GetRootPath) refers to net_http_server.o(.bss) for .bss
    net_http_server.o(i.netHTTPs_GetSession) refers to net_http_server.o(.data) for .data
    net_http_server.o(i.netHTTPs_GetUserId) refers to net_config.o(.constdata) for net_http_config
    net_http_server.o(i.netHTTPs_GetUserId) refers to net_http_server.o(.data) for .data
    net_http_server.o(i.netHTTPs_GetUsername) refers to net_http_server.o(.bss) for .bss
    net_http_server.o(i.netHTTPs_LoginActive) refers to net_http_server.o(.bss) for .bss
    net_http_server.o(i.netHTTPs_LoginOnOff) refers to net_config.o(.constdata) for net_http_config
    net_http_server.o(i.netHTTPs_LoginOnOff) refers to net_http_server.o(.bss) for .bss
    net_http_server.o(i.netHTTPs_Running) refers to net_http_server.o(.bss) for .bss
    net_http_server.o(i.netHTTPs_SetPassword) refers to net_sys.o(i.net_sys_lock) for net_sys_lock
    net_http_server.o(i.netHTTPs_SetPassword) refers to strlen.o(.text) for strlen
    net_http_server.o(i.netHTTPs_SetPassword) refers to eventrecorder.o(.text) for EventRecordData
    net_http_server.o(i.netHTTPs_SetPassword) refers to net_common.o(i.net_strcpy) for net_strcpy
    net_http_server.o(i.netHTTPs_SetPassword) refers to net_sys.o(i.net_sys_unlock) for net_sys_unlock
    net_http_server.o(i.netHTTPs_SetPassword) refers to net_http_server.o(.bss) for .bss
    net_http_server.o(i.netHTTPs_SetPort) refers to net_http_server.o(.bss) for .bss
    net_http_server.o(i.netHTTPs_SetRootPath) refers to net_sys.o(i.net_sys_lock) for net_sys_lock
    net_http_server.o(i.netHTTPs_SetRootPath) refers to strlen.o(.text) for strlen
    net_http_server.o(i.netHTTPs_SetRootPath) refers to eventrecorder.o(.text) for EventRecordData
    net_http_server.o(i.netHTTPs_SetRootPath) refers to net_common.o(i.net_strcpy) for net_strcpy
    net_http_server.o(i.netHTTPs_SetRootPath) refers to net_sys.o(i.net_sys_unlock) for net_sys_unlock
    net_http_server.o(i.netHTTPs_SetRootPath) refers to net_http_server.o(.bss) for .bss
    net_http_server.o(i.netHTTPs_SetUsername) refers to net_sys.o(i.net_sys_lock) for net_sys_lock
    net_http_server.o(i.netHTTPs_SetUsername) refers to strlen.o(.text) for strlen
    net_http_server.o(i.netHTTPs_SetUsername) refers to eventrecorder.o(.text) for EventRecordData
    net_http_server.o(i.netHTTPs_SetUsername) refers to net_common.o(i.net_strcpy) for net_strcpy
    net_http_server.o(i.netHTTPs_SetUsername) refers to net_sys.o(i.net_sys_unlock) for net_sys_unlock
    net_http_server.o(i.netHTTPs_SetUsername) refers to net_http_server.o(.bss) for .bss
    net_http_server.o(i.netHTTPs_Start) refers to net_sys.o(i.net_sys_lock) for net_sys_lock
    net_http_server.o(i.netHTTPs_Start) refers to net_http_server.o(i.http_server_start) for http_server_start
    net_http_server.o(i.netHTTPs_Start) refers to net_sys.o(i.net_sys_unlock) for net_sys_unlock
    net_http_server.o(i.netHTTPs_Start) refers to net_http_server.o(.bss) for .bss
    net_http_server.o(i.netHTTPs_Stop) refers to net_sys.o(i.net_sys_lock) for net_sys_lock
    net_http_server.o(i.netHTTPs_Stop) refers to net_http_server.o(i.http_server_stop) for http_server_stop
    net_http_server.o(i.netHTTPs_Stop) refers to net_sys.o(i.net_sys_unlock) for net_sys_unlock
    net_http_server.o(i.netHTTPs_Stop) refers to net_http_server.o(.bss) for .bss
    net_http_server.o(i.net_http_server_init) refers to eventrecorder.o(.text) for EventRecord2
    net_http_server.o(i.net_http_server_init) refers to strlen.o(.text) for strlen
    net_http_server.o(i.net_http_server_init) refers to memseta.o(.text) for __aeabi_memclr4
    net_http_server.o(i.net_http_server_init) refers to net_tcp.o(i.net_tcp_get_socket) for net_tcp_get_socket
    net_http_server.o(i.net_http_server_init) refers to net_config.o(.text) for net_sys_error
    net_http_server.o(i.net_http_server_init) refers to net_http_server.o(i.http_server_start) for http_server_start
    net_http_server.o(i.net_http_server_init) refers to net_config.o(.constdata) for net_http_config
    net_http_server.o(i.net_http_server_init) refers to net_http_server.o(i.http_listener) for http_listener
    net_http_server.o(i.net_http_server_init) refers to net_http_server.o(.bss) for .bss
    net_http_server.o(i.net_http_server_run) refers to net_http_server.o(i.http_server_run) for http_server_run
    net_http_server.o(i.net_http_server_run) refers to net_http_server.o(.bss) for .bss
    net_http_server.o(i.net_http_server_run) refers to net_config.o(.constdata) for net_http_config
    net_http_server.o(i.net_http_server_uninit) refers to eventrecorder.o(.text) for EventRecord2
    net_http_server.o(i.net_http_server_uninit) refers to net_config.o(.text) for netHTTPs_fclose
    net_http_server.o(i.net_http_server_uninit) refers to http_server_cgi.o(.text) for netCGI_ProcessData
    net_http_server.o(i.net_http_server_uninit) refers to memseta.o(.text) for __aeabi_memclr4
    net_http_server.o(i.net_http_server_uninit) refers to net_config.o(.constdata) for net_http_config
    net_http_server.o(i.net_http_server_uninit) refers to net_http_server.o(.bss) for .bss
    net_http_server.o(i.net_http_time) refers to net_http_server.o(.constdata) for .constdata
    net_http_server.o(i.proc_req_line) refers to net_http_server.o(i.hex2byte) for hex2byte
    net_http_server.o(i.proc_req_line) refers to net_http_server.o(.data) for .data
    net_http_server.o(i.read_script_line) refers to net_config.o(.text) for netHTTPs_fgets
    net_http_server.o(i.read_script_line) refers to strlen.o(.text) for strlen
    net_http_server.o(i.search_delim) refers to net_common.o(i.net_strcmp) for net_strcmp
    net_http_server.o(i.utc_to_http) refers to net_common.o(i.net_strcpy) for net_strcpy
    net_http_server.o(i.utc_to_http) refers to net_common.o(i.net_itoa_n0) for net_itoa_n0
    net_http_server.o(i.utc_to_http) refers to net_common.o(i.net_itoa) for net_itoa
    net_http_server.o(i.utc_to_http) refers to net_http_server.o(.constdata) for .constdata
    net_http_server_auth.o(i.get_nonce) refers to net_http_server_auth.o(i.get_rnd) for get_rnd
    net_http_server_auth.o(i.get_nonce) refers to net_base64.o(i.net_base64_encode) for net_base64_encode
    net_http_server_auth.o(i.get_nonce) refers to memcpya.o(.text) for __aeabi_memcpy
    net_http_server_auth.o(i.get_nonce) refers to net_sys.o(.bss) for net_sys_control
    net_http_server_auth.o(i.get_nonce) refers to net_config.o(.constdata) for net_http_config
    net_http_server_auth.o(i.get_rnd) refers to net_sys.o(i.net_rand32) for net_rand32
    net_http_server_auth.o(i.http_auth_basic_add) refers to net_common.o(i.net_strcpy) for net_strcpy
    net_http_server_auth.o(i.http_auth_basic_add) refers to net_config.o(.constdata) for net_http_config
    net_http_server_auth.o(i.http_auth_basic_parse) refers to net_common.o(i.net_strcasecmp) for net_strcasecmp
    net_http_server_auth.o(i.http_auth_basic_parse) refers to net_base64.o(i.net_base64_decode) for net_base64_decode
    net_http_server_auth.o(i.http_auth_basic_parse) refers to eventrecorder.o(.text) for EventRecordData
    net_http_server_auth.o(i.http_auth_basic_parse) refers to net_common.o(i.net_strchr) for net_strchr
    net_http_server_auth.o(i.http_auth_basic_parse) refers to strcmp.o(.text) for strcmp
    net_http_server_auth.o(i.http_auth_basic_parse) refers to net_http_server_auth.o(i.netHTTPs_CheckAccount) for netHTTPs_CheckAccount
    net_http_server_auth.o(i.http_auth_basic_parse) refers to net_http_server.o(.bss) for net_http_control
    net_http_server_auth.o(i.http_auth_digest_add) refers to net_common.o(i.net_strcpy) for net_strcpy
    net_http_server_auth.o(i.http_auth_digest_add) refers to net_http_server_auth.o(i.get_nonce) for get_nonce
    net_http_server_auth.o(i.http_auth_digest_add) refers to net_http_server_auth.o(i.get_rnd) for get_rnd
    net_http_server_auth.o(i.http_auth_digest_add) refers to net_common.o(i.net_bin2hex) for net_bin2hex
    net_http_server_auth.o(i.http_auth_digest_add) refers to net_config.o(.constdata) for net_http_config
    net_http_server_auth.o(i.http_auth_digest_hash) refers to net_mem.o(i.net_mem_alloc) for net_mem_alloc
    net_http_server_auth.o(i.http_auth_digest_hash) refers to net_md5.o(i.net_md5_init) for net_md5_init
    net_http_server_auth.o(i.http_auth_digest_hash) refers to strlen.o(.text) for strlen
    net_http_server_auth.o(i.http_auth_digest_hash) refers to net_md5.o(i.net_md5_update) for net_md5_update
    net_http_server_auth.o(i.http_auth_digest_hash) refers to net_md5.o(i.net_md5_final) for net_md5_final
    net_http_server_auth.o(i.http_auth_digest_hash) refers to net_mem.o(i.net_mem_free) for net_mem_free
    net_http_server_auth.o(i.http_auth_digest_hash) refers to net_config.o(.constdata) for net_http_config
    net_http_server_auth.o(i.http_auth_digest_init) refers to net_http_server_auth.o(i.http_auth_init) for http_auth_init
    net_http_server_auth.o(i.http_auth_digest_init) refers to net_config.o(.constdata) for net_http_config
    net_http_server_auth.o(i.http_auth_digest_parse) refers to net_common.o(i.net_strcasecmp) for net_strcasecmp
    net_http_server_auth.o(i.http_auth_digest_parse) refers to net_mem.o(i.net_mem_alloc) for net_mem_alloc
    net_http_server_auth.o(i.http_auth_digest_parse) refers to memseta.o(.text) for __aeabi_memclr4
    net_http_server_auth.o(i.http_auth_digest_parse) refers to net_common.o(i.net_strcmp) for net_strcmp
    net_http_server_auth.o(i.http_auth_digest_parse) refers to net_common.o(i.net_strnchr) for net_strnchr
    net_http_server_auth.o(i.http_auth_digest_parse) refers to eventrecorder.o(.text) for EventRecordData
    net_http_server_auth.o(i.http_auth_digest_parse) refers to strcmp.o(.text) for strcmp
    net_http_server_auth.o(i.http_auth_digest_parse) refers to net_http_server_auth.o(i.netHTTPs_CheckAccount) for netHTTPs_CheckAccount
    net_http_server_auth.o(i.http_auth_digest_parse) refers to net_http_server_auth.o(i.netHTTPs_GetUserSecret) for netHTTPs_GetUserSecret
    net_http_server_auth.o(i.http_auth_digest_parse) refers to strlen.o(.text) for strlen
    net_http_server_auth.o(i.http_auth_digest_parse) refers to net_md5.o(i.net_md5_init) for net_md5_init
    net_http_server_auth.o(i.http_auth_digest_parse) refers to net_md5.o(i.net_md5_update) for net_md5_update
    net_http_server_auth.o(i.http_auth_digest_parse) refers to net_md5.o(i.net_md5_final) for net_md5_final
    net_http_server_auth.o(i.http_auth_digest_parse) refers to net_common.o(i.net_bin2hex) for net_bin2hex
    net_http_server_auth.o(i.http_auth_digest_parse) refers to memcmp.o(.text) for memcmp
    net_http_server_auth.o(i.http_auth_digest_parse) refers to net_http_server_auth.o(i.verify_nonce) for verify_nonce
    net_http_server_auth.o(i.http_auth_digest_parse) refers to net_mem.o(i.net_mem_free) for net_mem_free
    net_http_server_auth.o(i.http_auth_digest_parse) refers to net_http_server.o(.bss) for net_http_control
    net_http_server_auth.o(i.http_auth_digest_parse) refers to net_config.o(.constdata) for net_http_config
    net_http_server_auth.o(i.http_auth_digest_uninit) refers to memseta.o(.text) for __aeabi_memclr4
    net_http_server_auth.o(i.http_auth_digest_uninit) refers to net_config.o(.constdata) for net_http_config
    net_http_server_auth.o(i.http_auth_init) refers to net_config.o(.constdata) for net_http_config
    net_http_server_auth.o(i.http_auth_init) refers to net_http_server.o(.bss) for net_http_control
    net_http_server_auth.o(i.verify_nonce) refers to memcmp.o(.text) for memcmp
    net_http_server_auth.o(i.verify_nonce) refers to net_common.o(i.net_xtoul) for net_xtoul
    net_http_server_auth.o(i.verify_nonce) refers to net_sys.o(.bss) for net_sys_control
    net_http_server_auth.o(i.verify_nonce) refers to net_config.o(.constdata) for net_http_config
    net_http_server_auth.o(.constdata) refers to net_http_server_auth.o(i.http_auth_init) for http_auth_init
    net_http_server_auth.o(.constdata) refers to net_http_server_auth.o(i.http_auth_dummy) for http_auth_dummy
    net_http_server_auth.o(.constdata) refers to net_http_server_auth.o(i.http_auth_basic_add) for http_auth_basic_add
    net_http_server_auth.o(.constdata) refers to net_http_server_auth.o(i.http_auth_basic_parse) for http_auth_basic_parse
    net_http_server_auth.o(.constdata) refers to net_http_server_auth.o(i.http_auth_digest_init) for http_auth_digest_init
    net_http_server_auth.o(.constdata) refers to net_http_server_auth.o(i.http_auth_digest_uninit) for http_auth_digest_uninit
    net_http_server_auth.o(.constdata) refers to net_http_server_auth.o(i.http_auth_dummy) for http_auth_dummy
    net_http_server_auth.o(.constdata) refers to net_http_server_auth.o(i.http_auth_digest_add) for http_auth_digest_add
    net_http_server_auth.o(.constdata) refers to net_http_server_auth.o(i.http_auth_digest_parse) for http_auth_digest_parse
    net_http_server_auth.o(.constdata) refers to net_http_server_auth.o(i.http_auth_digest_hash) for http_auth_digest_hash
    net_ping_core.o(i.netPing_Echo) refers to net_sys.o(i.net_sys_lock) for net_sys_lock
    net_ping_core.o(i.netPing_Echo) refers to net_ping_core.o(i.net_ping_client_start) for net_ping_client_start
    net_ping_core.o(i.netPing_Echo) refers to net_sys.o(i.net_sys_unlock) for net_sys_unlock
    net_ping_core.o(i.net_ping_client_init) refers to eventrecorder.o(.text) for EventRecord2
    net_ping_core.o(i.net_ping_client_init) refers to net_ping_core.o(.bss) for .bss
    net_ping_core.o(i.net_ping_client_run) refers to eventrecorder.o(.text) for EventRecord2
    net_ping_core.o(i.net_ping_client_run) refers to net_ping_core.o(i.ping_send_req) for ping_send_req
    net_ping_core.o(i.net_ping_client_run) refers to net_ping_core.o(.bss) for .bss
    net_ping_core.o(i.net_ping_client_run) refers to net_sys.o(.bss) for net_sys_control
    net_ping_core.o(i.net_ping_client_start) refers to net_addr.o(i.net_addr_is_unspec) for net_addr_is_unspec
    net_ping_core.o(i.net_ping_client_start) refers to eventrecorder.o(.text) for EventRecord2
    net_ping_core.o(i.net_ping_client_start) refers to net_addr.o(i.net_addr_copy) for net_addr_copy
    net_ping_core.o(i.net_ping_client_start) refers to net_addr.o(i.net_addr_find_route) for net_addr_find_route
    net_ping_core.o(i.net_ping_client_start) refers to net_addr.o(i.net_addr_get_local) for net_addr_get_local
    net_ping_core.o(i.net_ping_client_start) refers to net_sys.o(i.net_rand32) for net_rand32
    net_ping_core.o(i.net_ping_client_start) refers to net_ping_core.o(i.ping_send_req) for ping_send_req
    net_ping_core.o(i.net_ping_client_start) refers to net_ping_core.o(.bss) for .bss
    net_ping_core.o(i.net_ping_client_uninit) refers to eventrecorder.o(.text) for EventRecord2
    net_ping_core.o(i.net_ping_client_uninit) refers to memseta.o(.text) for __aeabi_memclr4
    net_ping_core.o(i.net_ping_client_uninit) refers to net_ping_core.o(.bss) for .bss
    net_ping_core.o(i.ping_send_req) refers to net_icmp.o(i.net_icmp_send_echo) for net_icmp_send_echo
    net_ping_core.o(i.ping_send_req) refers to net_icmp6.o(i.net_icmp6_send_echo) for net_icmp6_send_echo
    net_ping_core.o(i.ping_send_req) refers to net_ping_core.o(.bss) for .bss
    net_sys.o(i.netCore_Thread) refers to net_sys.o(i.net_sys_lock) for net_sys_lock
    net_sys.o(i.netCore_Thread) refers to net_config.o(.text) for netos_timer_start
    net_sys.o(i.netCore_Thread) refers to net_sys.o(i.net_sys_unlock) for net_sys_unlock
    net_sys.o(i.netCore_Thread) refers to net_sys.o(i.sys_proc_tick) for sys_proc_tick
    net_sys.o(i.netCore_Thread) refers to net_sys.o(.bss) for .bss
    net_sys.o(i.netCore_Thread) refers to net_config.o(.constdata) for net_sys_config
    net_sys.o(i.netIF_GetOption) refers to net_sys.o(i.net_if_map_all) for net_if_map_all
    net_sys.o(i.netIF_GetOption) refers to net_sys.o(i.net_sys_lock) for net_sys_lock
    net_sys.o(i.netIF_GetOption) refers to eventrecorder.o(.text) for EventRecord2
    net_sys.o(i.netIF_GetOption) refers to net_sys.o(i.net_sys_unlock) for net_sys_unlock
    net_sys.o(i.netIF_GetOption) refers to net_config.o(.constdata) for netif_getopt_func
    net_sys.o(i.netIF_SetDefault) refers to net_sys.o(i.net_if_map_all) for net_if_map_all
    net_sys.o(i.netIF_SetDefault) refers to net_sys.o(i.net_sys_lock) for net_sys_lock
    net_sys.o(i.netIF_SetDefault) refers to eventrecorder.o(.text) for EventRecord2
    net_sys.o(i.netIF_SetDefault) refers to net_ip4.o(i.net_ip4_set_netif) for net_ip4_set_netif
    net_sys.o(i.netIF_SetDefault) refers to net_ip6.o(i.net_ip6_set_netif) for net_ip6_set_netif
    net_sys.o(i.netIF_SetDefault) refers to net_sys.o(i.net_sys_unlock) for net_sys_unlock
    net_sys.o(i.netIF_SetOption) refers to net_sys.o(i.net_if_map_all) for net_if_map_all
    net_sys.o(i.netIF_SetOption) refers to net_sys.o(i.net_sys_lock) for net_sys_lock
    net_sys.o(i.netIF_SetOption) refers to eventrecorder.o(.text) for EventRecord2
    net_sys.o(i.netIF_SetOption) refers to net_sys.o(i.net_sys_unlock) for net_sys_unlock
    net_sys.o(i.netIF_SetOption) refers to net_config.o(.constdata) for netif_setopt_func
    net_sys.o(i.netInitialize) refers to net_config.o(.text) for netos_init
    net_sys.o(i.netInitialize) refers to net_sys.o(i.net_sys_lock) for net_sys_lock
    net_sys.o(i.netInitialize) refers to net_debug.o(.text) for net_evr_init
    net_sys.o(i.netInitialize) refers to eventrecorder.o(.text) for EventRecord2
    net_sys.o(i.netInitialize) refers to net_mem.o(i.net_mem_init) for net_mem_init
    net_sys.o(i.netInitialize) refers to memseta.o(.text) for __aeabi_memclr4
    net_sys.o(i.netInitialize) refers to net_sys.o(i.net_sys_unlock) for net_sys_unlock
    net_sys.o(i.netInitialize) refers to net_sys.o(.bss) for .bss
    net_sys.o(i.netInitialize) refers to net_version.o(.constdata) for net_lib_version
    net_sys.o(i.netInitialize) refers to net_config.o(.constdata) for net_sys_config
    net_sys.o(i.netSYS_GetHostName) refers to net_sys.o(.bss) for .bss
    net_sys.o(i.netSYS_SetHostName) refers to net_sys.o(i.net_sys_lock) for net_sys_lock
    net_sys.o(i.netSYS_SetHostName) refers to strlen.o(.text) for strlen
    net_sys.o(i.netSYS_SetHostName) refers to eventrecorder.o(.text) for EventRecordData
    net_sys.o(i.netSYS_SetHostName) refers to net_common.o(i.net_strcpy) for net_strcpy
    net_sys.o(i.netSYS_SetHostName) refers to net_sys.o(i.net_sys_unlock) for net_sys_unlock
    net_sys.o(i.netSYS_SetHostName) refers to net_sys.o(.bss) for .bss
    net_sys.o(i.netUninitialize) refers to net_sys.o(i.net_sys_lock) for net_sys_lock
    net_sys.o(i.netUninitialize) refers to eventrecorder.o(.text) for EventRecord2
    net_sys.o(i.netUninitialize) refers to net_sys.o(i.net_sys_unlock) for net_sys_unlock
    net_sys.o(i.netUninitialize) refers to net_config.o(.text) for netos_timer_delete
    net_sys.o(i.netUninitialize) refers to net_mem.o(i.net_mem_uninit) for net_mem_uninit
    net_sys.o(i.netUninitialize) refers to memseta.o(.text) for __aeabi_memclr4
    net_sys.o(i.netUninitialize) refers to net_config.o(.constdata) for net_sys_fn_uninit
    net_sys.o(i.netUninitialize) refers to net_sys.o(.bss) for .bss
    net_sys.o(i.net_if_map_all) refers to net_sys.o(i.sys_map_if) for sys_map_if
    net_sys.o(i.net_if_map_all) refers to net_config.o(.constdata) for net_if_list_all
    net_sys.o(i.net_if_map_lan) refers to net_sys.o(i.sys_map_if) for sys_map_if
    net_sys.o(i.net_if_map_lan) refers to net_config.o(.constdata) for net_if_list_lan
    net_sys.o(i.net_path) refers to net_common.o(i.net_strcpy) for net_strcpy
    net_sys.o(i.net_path) refers to net_common.o(i.net_strncpy) for net_strncpy
    net_sys.o(i.net_path) refers to net_config.o(.constdata) for net_sys_config
    net_sys.o(i.net_rand32) refers to net_sys.o(.bss) for .bss
    net_sys.o(i.net_sys_lock) refers to net_config.o(.text) for netos_lock
    net_sys.o(i.net_sys_lock) refers to net_sys.o(.bss) for .bss
    net_sys.o(i.net_sys_resume) refers to net_config.o(.text) for netos_flag_set
    net_sys.o(i.net_sys_suspend) refers to net_config.o(.text) for netos_thread_id
    net_sys.o(i.net_sys_suspend) refers to net_sys.o(i.net_sys_unlock) for net_sys_unlock
    net_sys.o(i.net_sys_suspend) refers to net_sys.o(i.net_sys_lock) for net_sys_lock
    net_sys.o(i.net_sys_tick) refers to net_sys.o(i.net_sys_wakeup) for net_sys_wakeup
    net_sys.o(i.net_sys_tick) refers to net_sys.o(.bss) for .bss
    net_sys.o(i.net_sys_unlock) refers to net_config.o(.text) for netos_unlock
    net_sys.o(i.net_sys_unlock) refers to net_sys.o(.bss) for .bss
    net_sys.o(i.net_sys_wait) refers to net_sys.o(i.net_sys_unlock) for net_sys_unlock
    net_sys.o(i.net_sys_wait) refers to net_config.o(.text) for netos_flag_wait
    net_sys.o(i.net_sys_wait) refers to net_sys.o(i.net_sys_lock) for net_sys_lock
    net_sys.o(i.net_sys_wakeup) refers to net_config.o(.text) for netos_flag_set
    net_sys.o(i.net_sys_wakeup) refers to net_sys.o(.bss) for .bss
    net_sys.o(i.sys_proc_tick) refers to net_sys.o(i.net_rand32) for net_rand32
    net_sys.o(i.sys_proc_tick) refers to net_sys.o(.bss) for .bss
    net_addr.o(i.ip4_ntoa) refers to net_common.o(i.net_itoa) for net_itoa
    net_addr.o(i.ip6_ntoa) refers to net_common.o(i.net_ultox) for net_ultox
    net_addr.o(i.mac_ntoa) refers to net_common.o(i.net_bin2hex) for net_bin2hex
    net_addr.o(i.mac_ntoa) refers to net_common.o(i.net_strtoupper) for net_strtoupper
    net_addr.o(i.netIP_aton) refers to net_addr.o(i.net_addr4_aton) for net_addr4_aton
    net_addr.o(i.netIP_aton) refers to net_addr.o(i.net_addr6_aton) for net_addr6_aton
    net_addr.o(i.netIP_ntoa) refers to net_addr.o(i.ip4_ntoa) for ip4_ntoa
    net_addr.o(i.netIP_ntoa) refers to net_addr.o(i.ip6_ntoa) for ip6_ntoa
    net_addr.o(i.netMAC_aton) refers to net_common.o(i.net_xtoul) for net_xtoul
    net_addr.o(i.netMAC_ntoa) refers to net_addr.o(i.mac_ntoa) for mac_ntoa
    net_addr.o(i.net_addr4_aton) refers to net_common.o(i.net_atoi) for net_atoi
    net_addr.o(i.net_addr4_ntoa) refers to net_addr.o(i.ip4_ntoa) for ip4_ntoa
    net_addr.o(i.net_addr4_ntoa) refers to net_addr.o(.bss) for .bss
    net_addr.o(i.net_addr6_aton) refers to net_common.o(i.net_xtoul) for net_xtoul
    net_addr.o(i.net_addr6_get_solicited) refers to net_addr.o(.bss) for .bss
    net_addr.o(i.net_addr6_ntoa) refers to net_addr.o(i.ip6_ntoa) for ip6_ntoa
    net_addr.o(i.net_addr6_ntoa) refers to net_addr.o(.bss) for .bss
    net_addr.o(i.net_addr_comp) refers to net_addr.o(i.net_addr6_comp) for net_addr6_comp
    net_addr.o(i.net_addr_copy) refers to net_addr.o(i.net_addr6_copy) for net_addr6_copy
    net_addr.o(i.net_addr_find_route) refers to net_ip4.o(i.net_ip4_find_route) for net_ip4_find_route
    net_addr.o(i.net_addr_find_route) refers to net_ip6.o(i.net_ip6_find_route) for net_ip6_find_route
    net_addr.o(i.net_addr_get_lhost) refers to net_addr.o(i.net_addr6_copy) for net_addr6_copy
    net_addr.o(i.net_addr_get_lhost) refers to net_ip6.o(.constdata) for net_addr6_loopback
    net_addr.o(i.net_addr_get_lhost) refers to net_ip4.o(.constdata) for net_addr4_loopback
    net_addr.o(i.net_addr_get_local) refers to net_ip4.o(i.net_ip4_get_local) for net_ip4_get_local
    net_addr.o(i.net_addr_get_local) refers to net_ip6.o(i.net_ip6_get_local) for net_ip6_get_local
    net_addr.o(i.net_addr_get_local) refers to net_addr.o(.constdata) for .constdata
    net_addr.o(i.net_addr_is_unspec) refers to net_addr.o(i.net_addr6_is_unspec) for net_addr6_is_unspec
    net_addr.o(i.net_addr_ntoa) refers to net_addr.o(i.net_addr6_ntoa) for net_addr6_ntoa
    net_addr.o(i.net_addr_ntoa) refers to net_addr.o(i.net_addr4_ntoa) for net_addr4_ntoa
    net_addr.o(i.net_mac_ntoa) refers to net_addr.o(i.mac_ntoa) for mac_ntoa
    net_addr.o(i.net_mac_ntoa) refers to net_addr.o(.bss) for .bss
    net_ndp.o(i.ndp_cache_add) refers to net_addr.o(i.net_addr6_comp) for net_addr6_comp
    net_ndp.o(i.ndp_cache_add) refers to memcpya.o(.text) for __aeabi_memcpy
    net_ndp.o(i.ndp_cache_add) refers to eventrecorder.o(.text) for EventRecordData
    net_ndp.o(i.ndp_cache_add) refers to net_ndp.o(i.ndp_cache_alloc) for ndp_cache_alloc
    net_ndp.o(i.ndp_cache_add) refers to net_addr.o(i.net_addr6_copy) for net_addr6_copy
    net_ndp.o(i.ndp_cache_add) refers to net_sys.o(.bss) for net_dbg_buf
    net_ndp.o(i.ndp_cache_delete) refers to net_addr.o(i.net_addr6_comp) for net_addr6_comp
    net_ndp.o(i.ndp_cache_delete) refers to memcpya.o(.text) for __aeabi_memcpy
    net_ndp.o(i.ndp_cache_delete) refers to eventrecorder.o(.text) for EventRecordData
    net_ndp.o(i.ndp_cache_delete) refers to net_ndp.o(i.ndp_router_remove) for ndp_router_remove
    net_ndp.o(i.ndp_cache_delete) refers to net_ndp.o(i.ndp_que_free) for ndp_que_free
    net_ndp.o(i.ndp_cache_delete) refers to net_sys.o(.bss) for net_dbg_buf
    net_ndp.o(i.ndp_cache_run) refers to net_ndp.o(i.ndp_slaac_run) for ndp_slaac_run
    net_ndp.o(i.ndp_cache_run) refers to net_ndp.o(i.ndp_probe_run) for ndp_probe_run
    net_ndp.o(i.ndp_cache_run) refers to eventrecorder.o(.text) for EventRecord2
    net_ndp.o(i.ndp_cache_run) refers to net_ndp.o(i.ndp_que_free) for ndp_que_free
    net_ndp.o(i.ndp_cache_run) refers to memcpya.o(.text) for __aeabi_memcpy
    net_ndp.o(i.ndp_cache_run) refers to net_ndp.o(i.ndp_router_remove) for ndp_router_remove
    net_ndp.o(i.ndp_cache_run) refers to net_ndp.o(i.ndp_send_request) for ndp_send_request
    net_ndp.o(i.ndp_cache_run) refers to net_sys.o(.bss) for net_sys_control
    net_ndp.o(i.ndp_cache_run) refers to net_sys.o(.bss) for net_dbg_buf
    net_ndp.o(i.ndp_prefix_add) refers to memcmp.o(.text) for memcmp
    net_ndp.o(i.ndp_prefix_add) refers to net_addr.o(i.net_addr6_create) for net_addr6_create
    net_ndp.o(i.ndp_prefix_add) refers to memcpya.o(.text) for __aeabi_memcpy
    net_ndp.o(i.ndp_prefix_add) refers to eventrecorder.o(.text) for EventRecordData
    net_ndp.o(i.ndp_prefix_add) refers to net_sys.o(.bss) for net_dbg_buf
    net_ndp.o(i.ndp_probe_run) refers to memcpya.o(.text) for __aeabi_memcpy
    net_ndp.o(i.ndp_probe_run) refers to eventrecorder.o(.text) for EventRecordData
    net_ndp.o(i.ndp_probe_run) refers to net_ndp.o(i.ndp_send_request) for ndp_send_request
    net_ndp.o(i.ndp_probe_run) refers to net_sys.o(i.net_sys_resume) for net_sys_resume
    net_ndp.o(i.ndp_probe_run) refers to net_sys.o(.bss) for net_dbg_buf
    net_ndp.o(i.ndp_probe_start) refers to memcpya.o(.text) for __aeabi_memcpy
    net_ndp.o(i.ndp_probe_start) refers to eventrecorder.o(.text) for EventRecordData
    net_ndp.o(i.ndp_probe_start) refers to net_addr.o(i.net_addr6_is_unspec) for net_addr6_is_unspec
    net_ndp.o(i.ndp_probe_start) refers to net_addr.o(i.net_addr6_comp) for net_addr6_comp
    net_ndp.o(i.ndp_probe_start) refers to net_addr.o(i.net_addr6_copy) for net_addr6_copy
    net_ndp.o(i.ndp_probe_start) refers to net_ndp.o(i.ndp_send_request) for ndp_send_request
    net_ndp.o(i.ndp_probe_start) refers to net_sys.o(.bss) for net_dbg_buf
    net_ndp.o(i.ndp_probe_start) refers to net_ip6.o(.constdata) for net_addr6_loopback
    net_ndp.o(i.ndp_proc_response) refers to net_addr.o(i.net_addr6_comp) for net_addr6_comp
    net_ndp.o(i.ndp_proc_response) refers to net_ndp.o(i.ndp_next_opt) for ndp_next_opt
    net_ndp.o(i.ndp_proc_response) refers to eventrecorder.o(.text) for EventRecord2
    net_ndp.o(i.ndp_proc_response) refers to memcpya.o(.text) for __aeabi_memcpy
    net_ndp.o(i.ndp_proc_response) refers to net_mem.o(i.net_mem_free) for net_mem_free
    net_ndp.o(i.ndp_proc_response) refers to net_sys.o(.bss) for net_dbg_buf
    net_ndp.o(i.ndp_que_free) refers to net_mem.o(i.net_mem_free) for net_mem_free
    net_ndp.o(i.ndp_router_remove) refers to net_addr.o(i.net_addr6_copy) for net_addr6_copy
    net_ndp.o(i.ndp_router_remove) refers to net_addr.o(.constdata) for net_addr_unspec
    net_ndp.o(i.ndp_send_reply) refers to memcpya.o(.text) for __aeabi_memcpy
    net_ndp.o(i.ndp_send_reply) refers to eventrecorder.o(.text) for EventRecordData
    net_ndp.o(i.ndp_send_reply) refers to net_mem.o(i.net_mem_alloc) for net_mem_alloc
    net_ndp.o(i.ndp_send_reply) refers to net_addr.o(i.net_addr6_copy) for net_addr6_copy
    net_ndp.o(i.ndp_send_reply) refers to net_icmp6.o(i.net_icmp6_send) for net_icmp6_send
    net_ndp.o(i.ndp_send_reply) refers to net_mem.o(i.net_mem_free) for net_mem_free
    net_ndp.o(i.ndp_send_reply) refers to net_sys.o(.bss) for net_dbg_buf
    net_ndp.o(i.ndp_send_reply) refers to net_ip6.o(.constdata) for net_addr6_all_nodes
    net_ndp.o(i.ndp_send_request) refers to eventrecorder.o(.text) for EventRecord2
    net_ndp.o(i.ndp_send_request) refers to net_mem.o(i.net_mem_alloc) for net_mem_alloc
    net_ndp.o(i.ndp_send_request) refers to net_addr.o(i.net_addr6_copy) for net_addr6_copy
    net_ndp.o(i.ndp_send_request) refers to memcpya.o(.text) for __aeabi_memcpy
    net_ndp.o(i.ndp_send_request) refers to net_ip6.o(i.net_ip6_get_local) for net_ip6_get_local
    net_ndp.o(i.ndp_send_request) refers to net_icmp6.o(i.net_icmp6_send) for net_icmp6_send
    net_ndp.o(i.ndp_send_request) refers to net_mem.o(i.net_mem_free) for net_mem_free
    net_ndp.o(i.ndp_send_request) refers to net_sys.o(.bss) for net_dbg_buf
    net_ndp.o(i.ndp_send_request) refers to net_addr.o(.constdata) for net_addr_unspec
    net_ndp.o(i.ndp_slaac_run) refers to net_addr.o(i.net_addr6_create) for net_addr6_create
    net_ndp.o(i.ndp_slaac_run) refers to memcpya.o(.text) for __aeabi_memcpy
    net_ndp.o(i.ndp_slaac_run) refers to eventrecorder.o(.text) for EventRecordData
    net_ndp.o(i.ndp_slaac_run) refers to net_addr.o(i.net_addr6_copy) for net_addr6_copy
    net_ndp.o(i.ndp_slaac_run) refers to net_sys.o(i.net_rand32) for net_rand32
    net_ndp.o(i.ndp_slaac_run) refers to net_ndp.o(i.ndp_send_request) for ndp_send_request
    net_ndp.o(i.ndp_slaac_run) refers to net_sys.o(.bss) for net_dbg_buf
    net_ndp.o(i.ndp_slaac_run) refers to net_addr.o(.constdata) for net_addr_unspec
    net_ndp.o(i.ndp_slaac_run) refers to net_ip6.o(.constdata) for net_addr6_all_routers
    net_ndp.o(i.ndp_slaac_run) refers to net_sys.o(.bss) for net_sys_control
    net_ndp.o(i.netNDP_CacheIP) refers to net_sys.o(i.net_if_map_lan) for net_if_map_lan
    net_ndp.o(i.netNDP_CacheIP) refers to net_sys.o(i.net_sys_lock) for net_sys_lock
    net_ndp.o(i.netNDP_CacheIP) refers to memcpya.o(.text) for __aeabi_memcpy
    net_ndp.o(i.netNDP_CacheIP) refers to eventrecorder.o(.text) for EventRecordData
    net_ndp.o(i.netNDP_CacheIP) refers to net_addr.o(i.net_addr6_is_unspec) for net_addr6_is_unspec
    net_ndp.o(i.netNDP_CacheIP) refers to net_ndp.o(i.net_ndp_cache_find) for net_ndp_cache_find
    net_ndp.o(i.netNDP_CacheIP) refers to net_sys.o(i.net_sys_unlock) for net_sys_unlock
    net_ndp.o(i.netNDP_CacheIP) refers to net_sys.o(.bss) for net_dbg_buf
    net_ndp.o(i.netNDP_ClearCache) refers to net_sys.o(i.net_if_map_lan) for net_if_map_lan
    net_ndp.o(i.netNDP_ClearCache) refers to net_sys.o(i.net_sys_lock) for net_sys_lock
    net_ndp.o(i.netNDP_ClearCache) refers to eventrecorder.o(.text) for EventRecord2
    net_ndp.o(i.netNDP_ClearCache) refers to net_ndp.o(i.ndp_que_free) for ndp_que_free
    net_ndp.o(i.netNDP_ClearCache) refers to net_sys.o(i.net_sys_unlock) for net_sys_unlock
    net_ndp.o(i.netNDP_GetIP) refers to net_sys.o(i.net_if_map_lan) for net_if_map_lan
    net_ndp.o(i.netNDP_GetIP) refers to net_sys.o(i.net_sys_lock) for net_sys_lock
    net_ndp.o(i.netNDP_GetIP) refers to eventrecorder.o(.text) for EventRecord2
    net_ndp.o(i.netNDP_GetIP) refers to memcpya.o(.text) for __aeabi_memcpy
    net_ndp.o(i.netNDP_GetIP) refers to net_addr.o(i.net_addr6_copy) for net_addr6_copy
    net_ndp.o(i.netNDP_GetIP) refers to net_sys.o(i.net_sys_unlock) for net_sys_unlock
    net_ndp.o(i.netNDP_GetIP) refers to net_sys.o(.bss) for net_dbg_buf
    net_ndp.o(i.netNDP_GetMAC) refers to net_sys.o(i.net_if_map_lan) for net_if_map_lan
    net_ndp.o(i.netNDP_GetMAC) refers to net_sys.o(i.net_sys_lock) for net_sys_lock
    net_ndp.o(i.netNDP_GetMAC) refers to net_ndp.o(i.net_ndp_find_mac) for net_ndp_find_mac
    net_ndp.o(i.netNDP_GetMAC) refers to memcpya.o(.text) for __aeabi_memcpy
    net_ndp.o(i.netNDP_GetMAC) refers to eventrecorder.o(.text) for EventRecordData
    net_ndp.o(i.netNDP_GetMAC) refers to net_sys.o(i.net_sys_unlock) for net_sys_unlock
    net_ndp.o(i.netNDP_GetMAC) refers to net_sys.o(.bss) for net_dbg_buf
    net_ndp.o(i.netNDP_Probe) refers to net_sys.o(i.net_if_map_lan) for net_if_map_lan
    net_ndp.o(i.netNDP_Probe) refers to net_sys.o(i.net_sys_lock) for net_sys_lock
    net_ndp.o(i.netNDP_Probe) refers to net_ndp.o(i.ndp_probe_start) for ndp_probe_start
    net_ndp.o(i.netNDP_Probe) refers to net_sys.o(i.net_sys_unlock) for net_sys_unlock
    net_ndp.o(i.netNDP_Probe) refers to eventrecorder.o(.text) for EventRecord2
    net_ndp.o(i.netNDP_ProbeX) refers to net_sys.o(i.net_if_map_lan) for net_if_map_lan
    net_ndp.o(i.netNDP_ProbeX) refers to net_sys.o(i.net_sys_lock) for net_sys_lock
    net_ndp.o(i.netNDP_ProbeX) refers to net_ndp.o(i.ndp_probe_start) for ndp_probe_start
    net_ndp.o(i.netNDP_ProbeX) refers to eventrecorder.o(.text) for EventRecord2
    net_ndp.o(i.netNDP_ProbeX) refers to net_sys.o(i.net_sys_suspend) for net_sys_suspend
    net_ndp.o(i.netNDP_ProbeX) refers to net_sys.o(i.net_sys_unlock) for net_sys_unlock
    net_ndp.o(i.netNDP_ProbeX) refers to net_config.o(.text) for netos_delay
    net_ndp.o(i.net_ndp_cache_find) refers to memcpya.o(.text) for __aeabi_memcpy
    net_ndp.o(i.net_ndp_cache_find) refers to eventrecorder.o(.text) for EventRecordData
    net_ndp.o(i.net_ndp_cache_find) refers to memcmp.o(.text) for memcmp
    net_ndp.o(i.net_ndp_cache_find) refers to net_addr.o(i.net_addr6_is_onlink) for net_addr6_is_onlink
    net_ndp.o(i.net_ndp_cache_find) refers to net_addr.o(i.net_addr6_is_unspec) for net_addr6_is_unspec
    net_ndp.o(i.net_ndp_cache_find) refers to net_addr.o(i.net_addr6_is_linklocal) for net_addr6_is_linklocal
    net_ndp.o(i.net_ndp_cache_find) refers to net_addr.o(i.net_addr6_comp) for net_addr6_comp
    net_ndp.o(i.net_ndp_cache_find) refers to net_ndp.o(i.ndp_cache_alloc) for ndp_cache_alloc
    net_ndp.o(i.net_ndp_cache_find) refers to net_ndp.o(i.ndp_que_free) for ndp_que_free
    net_ndp.o(i.net_ndp_cache_find) refers to net_addr.o(i.net_addr6_copy) for net_addr6_copy
    net_ndp.o(i.net_ndp_cache_find) refers to net_sys.o(.bss) for net_dbg_buf
    net_ndp.o(i.net_ndp_cache_find) refers to net_addr.o(.constdata) for net_addr_bcast
    net_ndp.o(i.net_ndp_cache_init) refers to eventrecorder.o(.text) for EventRecord2
    net_ndp.o(i.net_ndp_cache_init) refers to memseta.o(.text) for __aeabi_memclr4
    net_ndp.o(i.net_ndp_cache_init) refers to net_addr.o(i.net_addr6_create) for net_addr6_create
    net_ndp.o(i.net_ndp_cache_init) refers to memcpya.o(.text) for __aeabi_memcpy
    net_ndp.o(i.net_ndp_cache_init) refers to net_config.o(.constdata) for net_ndp_list
    net_ndp.o(i.net_ndp_cache_init) refers to net_sys.o(.bss) for net_dbg_buf
    net_ndp.o(i.net_ndp_cache_mac) refers to net_sys.o(i.net_if_map_lan) for net_if_map_lan
    net_ndp.o(i.net_ndp_cache_refresh) refers to net_addr.o(i.net_addr6_comp) for net_addr6_comp
    net_ndp.o(i.net_ndp_cache_refresh) refers to memcpya.o(.text) for __aeabi_memcpy
    net_ndp.o(i.net_ndp_cache_refresh) refers to eventrecorder.o(.text) for EventRecordData
    net_ndp.o(i.net_ndp_cache_refresh) refers to net_sys.o(.bss) for net_dbg_buf
    net_ndp.o(i.net_ndp_cache_run) refers to net_ndp.o(i.ndp_cache_run) for ndp_cache_run
    net_ndp.o(i.net_ndp_cache_run) refers to net_config.o(.constdata) for net_ndp_list
    net_ndp.o(i.net_ndp_cache_uninit) refers to eventrecorder.o(.text) for EventRecord2
    net_ndp.o(i.net_ndp_cache_uninit) refers to memseta.o(.text) for __aeabi_memclr4
    net_ndp.o(i.net_ndp_cache_uninit) refers to net_config.o(.constdata) for net_ndp_list
    net_ndp.o(i.net_ndp_enqueue) refers to net_mem.o(i.net_mem_avail) for net_mem_avail
    net_ndp.o(i.net_ndp_enqueue) refers to net_mem.o(i.net_mem_alloc) for net_mem_alloc
    net_ndp.o(i.net_ndp_enqueue) refers to memcpya.o(.text) for __aeabi_memcpy
    net_ndp.o(i.net_ndp_enqueue) refers to eventrecorder.o(.text) for EventRecord2
    net_ndp.o(i.net_ndp_enqueue) refers to net_ndp.o(i.ndp_send_request) for ndp_send_request
    net_ndp.o(i.net_ndp_find_mac) refers to net_addr.o(i.net_addr6_comp) for net_addr6_comp
    net_ndp.o(i.net_ndp_process) refers to net_ndp.o(i.ndp_check_frame) for ndp_check_frame
    net_ndp.o(i.net_ndp_process) refers to memcpya.o(.text) for __aeabi_memcpy
    net_ndp.o(i.net_ndp_process) refers to eventrecorder.o(.text) for EventRecordData
    net_ndp.o(i.net_ndp_process) refers to net_addr.o(i.net_addr6_comp) for net_addr6_comp
    net_ndp.o(i.net_ndp_process) refers to net_addr.o(i.net_addr6_is_linklocal) for net_addr6_is_linklocal
    net_ndp.o(i.net_ndp_process) refers to net_ndp.o(i.ndp_cache_add) for ndp_cache_add
    net_ndp.o(i.net_ndp_process) refers to net_ndp.o(i.ndp_cache_delete) for ndp_cache_delete
    net_ndp.o(i.net_ndp_process) refers to net_ndp.o(i.ndp_prefix_add) for ndp_prefix_add
    net_ndp.o(i.net_ndp_process) refers to net_ndp.o(i.ndp_next_opt) for ndp_next_opt
    net_ndp.o(i.net_ndp_process) refers to net_addr.o(i.net_addr6_is_unspec) for net_addr6_is_unspec
    net_ndp.o(i.net_ndp_process) refers to net_ndp.o(i.ndp_send_reply) for ndp_send_reply
    net_ndp.o(i.net_ndp_process) refers to net_sys.o(i.net_sys_resume) for net_sys_resume
    net_ndp.o(i.net_ndp_process) refers to net_ndp.o(i.ndp_proc_response) for ndp_proc_response
    net_ndp.o(i.net_ndp_process) refers to net_sys.o(.bss) for net_dbg_buf
    net_ndp.o(i.net_ndp_process) refers to net_ip6.o(.constdata) for net_addr6_all_nodes
    net_ip4.o(i.ip4_get_chksum) refers to net_common.o(i.net_chksum_buf) for net_chksum_buf
    net_ip4.o(i.net_ip4_chk_frame) refers to eventrecorder.o(.text) for EventRecord2
    net_ip4.o(i.net_ip4_chk_frame) refers to net_ip4.o(i.net_ip4_is_subcast) for net_ip4_is_subcast
    net_ip4.o(i.net_ip4_chk_frame) refers to net_config.o(.text) for net_igmp_is_member
    net_ip4.o(i.net_ip4_chk_frame) refers to net_ip4.o(i.ip4_get_chksum) for ip4_get_chksum
    net_ip4.o(i.net_ip4_chk_frame) refers to net_ip4.o(i.ip4_get_mtu) for ip4_get_mtu
    net_ip4.o(i.net_ip4_chk_frame) refers to net_sys.o(.bss) for net_sys_control
    net_ip4.o(i.net_ip4_chk_frame) refers to net_sys.o(.bss) for net_dbg_buf
    net_ip4.o(i.net_ip4_chk_frame) refers to net_ip4.o(.constdata) for .constdata
    net_ip4.o(i.net_ip4_chk_frame) refers to net_addr.o(.constdata) for net_addr_bcast
    net_ip4.o(i.net_ip4_chksum) refers to net_common.o(i.net_chksum_buf) for net_chksum_buf
    net_ip4.o(i.net_ip4_chksum_buf) refers to net_common.o(i.net_chksum_buf) for net_chksum_buf
    net_ip4.o(i.net_ip4_def_localm) refers to net_ip4.o(.data) for .data
    net_ip4.o(i.net_ip4_find_route) refers to net_ip4.o(i.net_ip4_is_onlink) for net_ip4_is_onlink
    net_ip4.o(i.net_ip4_find_route) refers to net_addr.o(.constdata) for net_addr_bcast
    net_ip4.o(i.net_ip4_find_route) refers to net_ip4.o(.constdata) for .constdata
    net_ip4.o(i.net_ip4_find_route) refers to net_loopback.o(.constdata) for net_loop_if_config
    net_ip4.o(i.net_ip4_find_route) refers to net_config.o(.constdata) for net_if_link_def
    net_ip4.o(i.net_ip4_find_route) refers to net_ip4.o(.data) for .data
    net_ip4.o(i.net_ip4_get_local) refers to net_ip4.o(.constdata) for .constdata
    net_ip4.o(i.net_ip4_init) refers to eventrecorder.o(.text) for EventRecord2
    net_ip4.o(i.net_ip4_init) refers to net_ip4.o(.data) for .data
    net_ip4.o(i.net_ip4_init) refers to net_config.o(.constdata) for net_if_inet_def
    net_ip4.o(i.net_ip4_reass_frame) refers to net_ip4_frag.o(i.net_ip4_frag_add) for net_ip4_frag_add
    net_ip4.o(i.net_ip4_send_frame) refers to eventrecorder.o(.text) for EventRecord2
    net_ip4.o(i.net_ip4_send_frame) refers to net_ip4.o(i.net_ip4_get_local) for net_ip4_get_local
    net_ip4.o(i.net_ip4_send_frame) refers to net_ip4.o(i.ip4_get_mtu) for ip4_get_mtu
    net_ip4.o(i.net_ip4_send_frame) refers to net_ip4_frag.o(i.net_ip4_frag_get) for net_ip4_frag_get
    net_ip4.o(i.net_ip4_send_frame) refers to net_ip4.o(i.ip4_get_chksum) for ip4_get_chksum
    net_ip4.o(i.net_ip4_send_frame) refers to net_sys.o(.bss) for net_sys_control
    net_ip4.o(i.net_ip4_send_frame) refers to net_ip4.o(.data) for .data
    net_ip4.o(i.net_ip4_set_netif) refers to eventrecorder.o(.text) for EventRecord2
    net_ip4.o(i.net_ip4_set_netif) refers to net_ip4.o(.data) for .data
    net_ip4.o(i.net_ip4_uninit) refers to eventrecorder.o(.text) for EventRecord2
    net_ip4.o(i.net_ip4_uninit) refers to net_ip4.o(.data) for .data
    net_ip6.o(i.net_ip6_chk_frame) refers to eventrecorder.o(.text) for EventRecord2
    net_ip6.o(i.net_ip6_chk_frame) refers to net_addr.o(i.net_addr6_is_solicited) for net_addr6_is_solicited
    net_ip6.o(i.net_ip6_chk_frame) refers to net_addr.o(i.net_addr6_comp) for net_addr6_comp
    net_ip6.o(i.net_ip6_chk_frame) refers to memcpya.o(.text) for __aeabi_memcpy
    net_ip6.o(i.net_ip6_chk_frame) refers to net_sys.o(.bss) for net_sys_control
    net_ip6.o(i.net_ip6_chk_frame) refers to net_ip6.o(.constdata) for .constdata
    net_ip6.o(i.net_ip6_chk_frame) refers to net_sys.o(.bss) for net_dbg_buf
    net_ip6.o(i.net_ip6_chksum) refers to net_common.o(i.net_chksum_buf) for net_chksum_buf
    net_ip6.o(i.net_ip6_collect_mcast) refers to net_addr.o(i.net_addr6_to_mac) for net_addr6_to_mac
    net_ip6.o(i.net_ip6_collect_mcast) refers to net_addr.o(i.net_addr6_get_solicited) for net_addr6_get_solicited
    net_ip6.o(i.net_ip6_collect_mcast) refers to net_addr.o(i.net_addr6_is_unspec) for net_addr6_is_unspec
    net_ip6.o(i.net_ip6_collect_mcast) refers to net_ip6.o(.constdata) for .constdata
    net_ip6.o(i.net_ip6_def_localm) refers to net_ip6.o(.data) for .data
    net_ip6.o(i.net_ip6_find_route) refers to net_addr.o(i.net_addr6_comp) for net_addr6_comp
    net_ip6.o(i.net_ip6_find_route) refers to net_ip6.o(.constdata) for .constdata
    net_ip6.o(i.net_ip6_find_route) refers to net_loopback.o(.constdata) for net_loop_if_config
    net_ip6.o(i.net_ip6_find_route) refers to net_config.o(.constdata) for net_if_link_def
    net_ip6.o(i.net_ip6_find_route) refers to net_ip6.o(.data) for .data
    net_ip6.o(i.net_ip6_get_local) refers to net_addr.o(i.net_addr6_is_unspec) for net_addr6_is_unspec
    net_ip6.o(i.net_ip6_get_local) refers to net_ip6.o(.constdata) for .constdata
    net_ip6.o(i.net_ip6_get_local) refers to net_addr.o(.constdata) for net_addr_unspec
    net_ip6.o(i.net_ip6_init) refers to eventrecorder.o(.text) for EventRecord2
    net_ip6.o(i.net_ip6_init) refers to net_ip6.o(.data) for .data
    net_ip6.o(i.net_ip6_init) refers to net_config.o(.constdata) for net_if_inet_def
    net_ip6.o(i.net_ip6_send_frame) refers to eventrecorder.o(.text) for EventRecord2
    net_ip6.o(i.net_ip6_send_frame) refers to net_addr.o(i.net_addr6_copy) for net_addr6_copy
    net_ip6.o(i.net_ip6_send_frame) refers to net_sys.o(.bss) for net_sys_control
    net_ip6.o(i.net_ip6_set_netif) refers to eventrecorder.o(.text) for EventRecord2
    net_ip6.o(i.net_ip6_set_netif) refers to net_ip6.o(.data) for .data
    net_ip6.o(i.net_ip6_uninit) refers to eventrecorder.o(.text) for EventRecord2
    net_ip6.o(i.net_ip6_uninit) refers to net_ip6.o(.data) for .data
    net_icmp6.o(i.netICMP6_SetNoEcho) refers to net_sys.o(i.net_if_map_all) for net_if_map_all
    net_icmp6.o(i.net_icmp6_init) refers to net_config.o(.constdata) for net_icmp6_list
    net_icmp6.o(i.net_icmp6_process) refers to net_ip6.o(i.net_ip6_chksum) for net_ip6_chksum
    net_icmp6.o(i.net_icmp6_process) refers to eventrecorder.o(.text) for EventRecord2
    net_icmp6.o(i.net_icmp6_process) refers to net_mem.o(i.net_mem_alloc) for net_mem_alloc
    net_icmp6.o(i.net_icmp6_process) refers to memcpya.o(.text) for __aeabi_memcpy
    net_icmp6.o(i.net_icmp6_process) refers to net_ip6.o(i.net_ip6_send_frame) for net_ip6_send_frame
    net_icmp6.o(i.net_icmp6_process) refers to net_mem.o(i.net_mem_free) for net_mem_free
    net_icmp6.o(i.net_icmp6_process) refers to net_addr.o(i.net_addr6_comp) for net_addr6_comp
    net_icmp6.o(i.net_icmp6_process) refers to memcmp.o(.text) for memcmp
    net_icmp6.o(i.net_icmp6_process) refers to net_ndp.o(i.net_ndp_process) for net_ndp_process
    net_icmp6.o(i.net_icmp6_process) refers to net_sys.o(.bss) for net_sys_control
    net_icmp6.o(i.net_icmp6_process) refers to net_ping_core.o(.bss) for net_ping_control
    net_icmp6.o(i.net_icmp6_process) refers to net_sys.o(.bss) for net_dbg_buf
    net_icmp6.o(i.net_icmp6_process) refers to net_ping_core.o(.constdata) for net_ping_payload
    net_icmp6.o(i.net_icmp6_send) refers to eventrecorder.o(.text) for EventRecord2
    net_icmp6.o(i.net_icmp6_send) refers to net_addr.o(i.net_addr6_get_solicited) for net_addr6_get_solicited
    net_icmp6.o(i.net_icmp6_send) refers to net_ip6.o(i.net_ip6_tx_offl_hl) for net_ip6_tx_offl_hl
    net_icmp6.o(i.net_icmp6_send) refers to net_ip6.o(i.net_ip6_chksum) for net_ip6_chksum
    net_icmp6.o(i.net_icmp6_send) refers to net_ip6.o(i.net_ip6_send_frame) for net_ip6_send_frame
    net_icmp6.o(i.net_icmp6_send_echo) refers to net_mem.o(i.net_mem_alloc) for net_mem_alloc
    net_icmp6.o(i.net_icmp6_send_echo) refers to memcpya.o(.text) for __aeabi_memcpy
    net_icmp6.o(i.net_icmp6_send_echo) refers to net_icmp6.o(i.net_icmp6_send) for net_icmp6_send
    net_icmp6.o(i.net_icmp6_send_echo) refers to net_mem.o(i.net_mem_free) for net_mem_free
    net_icmp6.o(i.net_icmp6_send_echo) refers to net_ping_core.o(.bss) for net_ping_control
    net_icmp6.o(i.net_icmp6_send_echo) refers to net_ping_core.o(.constdata) for net_ping_payload
    net_http_server_err.o(.constdata) refers to net_http_server_err.o(.conststring) for .conststring
    net_mem.o(i.mem_lock) refers to net_config.o(.text) for netos_lock
    net_mem.o(i.mem_lock) refers to net_mem.o(.bss) for .bss
    net_mem.o(i.mem_unlock) refers to net_config.o(.text) for netos_unlock
    net_mem.o(i.mem_unlock) refers to net_mem.o(.bss) for .bss
    net_mem.o(i.net_mem_alloc) refers to net_mem.o(i.mem_lock) for mem_lock
    net_mem.o(i.net_mem_alloc) refers to eventrecorder.o(.text) for EventRecord4
    net_mem.o(i.net_mem_alloc) refers to net_mem.o(i.mem_unlock) for mem_unlock
    net_mem.o(i.net_mem_alloc) refers to net_config.o(.text) for net_sys_error
    net_mem.o(i.net_mem_alloc) refers to net_mem.o(.bss) for .bss
    net_mem.o(i.net_mem_alloc) refers to net_config.o(.constdata) for net_sys_config
    net_mem.o(i.net_mem_avail) refers to net_mem.o(.bss) for .bss
    net_mem.o(i.net_mem_free) refers to net_mem.o(i.mem_lock) for mem_lock
    net_mem.o(i.net_mem_free) refers to eventrecorder.o(.text) for EventRecord2
    net_mem.o(i.net_mem_free) refers to net_mem.o(i.mem_unlock) for mem_unlock
    net_mem.o(i.net_mem_free) refers to net_config.o(.text) for net_sys_error
    net_mem.o(i.net_mem_free) refers to net_config.o(.constdata) for net_sys_config
    net_mem.o(i.net_mem_free) refers to net_mem.o(.bss) for .bss
    net_mem.o(i.net_mem_init) refers to net_config.o(.text) for netos_mutex_create
    net_mem.o(i.net_mem_init) refers to eventrecorder.o(.text) for EventRecord4
    net_mem.o(i.net_mem_init) refers to net_config.o(.constdata) for net_sys_config
    net_mem.o(i.net_mem_init) refers to net_mem.o(.bss) for .bss
    net_mem.o(i.net_mem_shrink) refers to net_mem.o(i.mem_lock) for mem_lock
    net_mem.o(i.net_mem_shrink) refers to eventrecorder.o(.text) for EventRecord2
    net_mem.o(i.net_mem_shrink) refers to net_mem.o(i.mem_unlock) for mem_unlock
    net_mem.o(i.net_mem_shrink) refers to net_mem.o(.bss) for .bss
    net_mem.o(i.net_mem_uninit) refers to eventrecorder.o(.text) for EventRecord2
    net_mem.o(i.net_mem_uninit) refers to memseta.o(.text) for __aeabi_memclr4
    net_mem.o(i.net_mem_uninit) refers to net_config.o(.text) for netos_mutex_delete
    net_mem.o(i.net_mem_uninit) refers to net_config.o(.constdata) for net_sys_config
    net_mem.o(i.net_mem_uninit) refers to net_mem.o(.bss) for .bss
    net_common.o(i.i2str) refers to net_common.o(i.ul2str) for ul2str
    net_common.o(i.net_bin2hex) refers to net_common.o(.constdata) for .constdata
    net_common.o(i.net_crc_buf) refers to net_common.o(i.crc32_8bit) for crc32_8bit
    net_common.o(i.net_itoa) refers to net_common.o(i.i2str) for i2str
    net_common.o(i.net_itoa_n) refers to net_common.o(i.i2str) for i2str
    net_common.o(i.net_itoa_n0) refers to net_common.o(i.i2str) for i2str
    net_common.o(i.net_strcrc) refers to net_common.o(i.crc32_8bit) for crc32_8bit
    net_common.o(i.net_ultoa) refers to net_common.o(i.ul2str) for ul2str
    net_common.o(i.net_ultoa_n) refers to net_common.o(i.ul2str) for ul2str
    net_common.o(i.net_ultoa_n0) refers to net_common.o(i.ul2str) for ul2str
    net_common.o(i.net_ultox) refers to net_common.o(.constdata) for .constdata
    net_md5.o(i.md5_transform) refers to net_md5.o(.constdata) for .constdata
    net_md5.o(i.net_md5_final) refers to memseta.o(.text) for __aeabi_memclr
    net_md5.o(i.net_md5_final) refers to net_md5.o(i.md5_transform) for md5_transform
    net_md5.o(i.net_md5_final) refers to memcpya.o(.text) for __aeabi_memcpy
    net_md5.o(i.net_md5_update) refers to memcpya.o(.text) for __aeabi_memcpy
    net_md5.o(i.net_md5_update) refers to net_md5.o(i.md5_transform) for md5_transform
    net_base64.o(i.net_base64_decode) refers to net_base64.o(.constdata) for .constdata
    net_base64.o(i.net_base64_encode) refers to net_base64.o(.constdata) for .constdata
    entry.o(.ARM.Collect$$$$00000000) refers (Special) to entry10a.o(.ARM.Collect$$$$0000000F) for __rt_final_cpp
    entry.o(.ARM.Collect$$$$00000000) refers (Special) to entry11a.o(.ARM.Collect$$$$00000011) for __rt_final_exit
    entry.o(.ARM.Collect$$$$00000000) refers (Special) to entry12b.o(.ARM.Collect$$$$0000000E) for __rt_lib_shutdown_fini
    entry.o(.ARM.Collect$$$$00000000) refers (Special) to entry7b.o(.ARM.Collect$$$$00000008) for _main_clock
    entry.o(.ARM.Collect$$$$00000000) refers (Special) to entry8b.o(.ARM.Collect$$$$0000000A) for _main_cpp_init
    entry.o(.ARM.Collect$$$$00000000) refers (Special) to entry9a.o(.ARM.Collect$$$$0000000B) for _main_init
    entry.o(.ARM.Collect$$$$00000000) refers (Special) to entry5.o(.ARM.Collect$$$$00000004) for _main_scatterload
    entry.o(.ARM.Collect$$$$00000000) refers (Special) to entry2.o(.ARM.Collect$$$$00000001) for _main_stk
    uldiv.o(.text) refers to llushr.o(.text) for __aeabi_llsr
    uldiv.o(.text) refers to llshl.o(.text) for __aeabi_llsl
    printfb.o(i.__0fprintf$bare) refers to printfb.o(i._printf_core) for _printf_core
    printfb.o(i.__0fprintf$bare) refers to fputc.o(i.fputc) for fputc
    printfb.o(i.__0printf$bare) refers to printfb.o(i._printf_core) for _printf_core
    printfb.o(i.__0printf$bare) refers to fputc.o(i.fputc) for fputc
    printfb.o(i.__0printf$bare) refers to stdout.o(.data) for __stdout
    printfb.o(i.__0snprintf$bare) refers to printfb.o(i._printf_core) for _printf_core
    printfb.o(i.__0snprintf$bare) refers to printfb.o(i._snputc) for _snputc
    printfb.o(i.__0sprintf$bare) refers to printfb.o(i._printf_core) for _printf_core
    printfb.o(i.__0sprintf$bare) refers to printfb.o(i._sputc) for _sputc
    printfb.o(i.__0vfprintf$bare) refers to printfb.o(i._printf_core) for _printf_core
    printfb.o(i.__0vfprintf$bare) refers to fputc.o(i.fputc) for fputc
    printfb.o(i.__0vprintf$bare) refers to printfb.o(i._printf_core) for _printf_core
    printfb.o(i.__0vprintf$bare) refers to fputc.o(i.fputc) for fputc
    printfb.o(i.__0vprintf$bare) refers to stdout.o(.data) for __stdout
    printfb.o(i.__0vsnprintf$bare) refers to printfb.o(i._printf_core) for _printf_core
    printfb.o(i.__0vsnprintf$bare) refers to printfb.o(i._snputc) for _snputc
    printfb.o(i.__0vsprintf$bare) refers to printfb.o(i._printf_core) for _printf_core
    printfb.o(i.__0vsprintf$bare) refers to printfb.o(i._sputc) for _sputc
    printf0.o(i.__0fprintf$0) refers to printf0.o(i._printf_core) for _printf_core
    printf0.o(i.__0fprintf$0) refers to fputc.o(i.fputc) for fputc
    printf0.o(i.__0printf$0) refers to printf0.o(i._printf_core) for _printf_core
    printf0.o(i.__0printf$0) refers to fputc.o(i.fputc) for fputc
    printf0.o(i.__0printf$0) refers to stdout.o(.data) for __stdout
    printf0.o(i.__0snprintf$0) refers to printf0.o(i._printf_core) for _printf_core
    printf0.o(i.__0snprintf$0) refers to printf0.o(i._snputc) for _snputc
    printf0.o(i.__0sprintf$0) refers to printf0.o(i._printf_core) for _printf_core
    printf0.o(i.__0sprintf$0) refers to printf0.o(i._sputc) for _sputc
    printf0.o(i.__0vfprintf$0) refers to printf0.o(i._printf_core) for _printf_core
    printf0.o(i.__0vfprintf$0) refers to fputc.o(i.fputc) for fputc
    printf0.o(i.__0vprintf$0) refers to printf0.o(i._printf_core) for _printf_core
    printf0.o(i.__0vprintf$0) refers to fputc.o(i.fputc) for fputc
    printf0.o(i.__0vprintf$0) refers to stdout.o(.data) for __stdout
    printf0.o(i.__0vsnprintf$0) refers to printf0.o(i._printf_core) for _printf_core
    printf0.o(i.__0vsnprintf$0) refers to printf0.o(i._snputc) for _snputc
    printf0.o(i.__0vsprintf$0) refers to printf0.o(i._printf_core) for _printf_core
    printf0.o(i.__0vsprintf$0) refers to printf0.o(i._sputc) for _sputc
    printf1.o(i.__0fprintf$1) refers to printf1.o(i._printf_core) for _printf_core
    printf1.o(i.__0fprintf$1) refers to fputc.o(i.fputc) for fputc
    printf1.o(i.__0printf$1) refers to printf1.o(i._printf_core) for _printf_core
    printf1.o(i.__0printf$1) refers to fputc.o(i.fputc) for fputc
    printf1.o(i.__0printf$1) refers to stdout.o(.data) for __stdout
    printf1.o(i.__0snprintf$1) refers to printf1.o(i._printf_core) for _printf_core
    printf1.o(i.__0snprintf$1) refers to printf1.o(i._snputc) for _snputc
    printf1.o(i.__0sprintf$1) refers to printf1.o(i._printf_core) for _printf_core
    printf1.o(i.__0sprintf$1) refers to printf1.o(i._sputc) for _sputc
    printf1.o(i.__0vfprintf$1) refers to printf1.o(i._printf_core) for _printf_core
    printf1.o(i.__0vfprintf$1) refers to fputc.o(i.fputc) for fputc
    printf1.o(i.__0vprintf$1) refers to printf1.o(i._printf_core) for _printf_core
    printf1.o(i.__0vprintf$1) refers to fputc.o(i.fputc) for fputc
    printf1.o(i.__0vprintf$1) refers to stdout.o(.data) for __stdout
    printf1.o(i.__0vsnprintf$1) refers to printf1.o(i._printf_core) for _printf_core
    printf1.o(i.__0vsnprintf$1) refers to printf1.o(i._snputc) for _snputc
    printf1.o(i.__0vsprintf$1) refers to printf1.o(i._printf_core) for _printf_core
    printf1.o(i.__0vsprintf$1) refers to printf1.o(i._sputc) for _sputc
    printf1.o(i._printf_core) refers to uidiv.o(.text) for __aeabi_uidivmod
    printf2.o(i.__0fprintf$2) refers to printf2.o(i._printf_core) for _printf_core
    printf2.o(i.__0fprintf$2) refers to fputc.o(i.fputc) for fputc
    printf2.o(i.__0printf$2) refers to printf2.o(i._printf_core) for _printf_core
    printf2.o(i.__0printf$2) refers to fputc.o(i.fputc) for fputc
    printf2.o(i.__0printf$2) refers to stdout.o(.data) for __stdout
    printf2.o(i.__0snprintf$2) refers to printf2.o(i._printf_core) for _printf_core
    printf2.o(i.__0snprintf$2) refers to printf2.o(i._snputc) for _snputc
    printf2.o(i.__0sprintf$2) refers to printf2.o(i._printf_core) for _printf_core
    printf2.o(i.__0sprintf$2) refers to printf2.o(i._sputc) for _sputc
    printf2.o(i.__0vfprintf$2) refers to printf2.o(i._printf_core) for _printf_core
    printf2.o(i.__0vfprintf$2) refers to fputc.o(i.fputc) for fputc
    printf2.o(i.__0vprintf$2) refers to printf2.o(i._printf_core) for _printf_core
    printf2.o(i.__0vprintf$2) refers to fputc.o(i.fputc) for fputc
    printf2.o(i.__0vprintf$2) refers to stdout.o(.data) for __stdout
    printf2.o(i.__0vsnprintf$2) refers to printf2.o(i._printf_core) for _printf_core
    printf2.o(i.__0vsnprintf$2) refers to printf2.o(i._snputc) for _snputc
    printf2.o(i.__0vsprintf$2) refers to printf2.o(i._printf_core) for _printf_core
    printf2.o(i.__0vsprintf$2) refers to printf2.o(i._sputc) for _sputc
    printf3.o(i.__0fprintf$3) refers to printf3.o(i._printf_core) for _printf_core
    printf3.o(i.__0fprintf$3) refers to fputc.o(i.fputc) for fputc
    printf3.o(i.__0printf$3) refers to printf3.o(i._printf_core) for _printf_core
    printf3.o(i.__0printf$3) refers to fputc.o(i.fputc) for fputc
    printf3.o(i.__0printf$3) refers to stdout.o(.data) for __stdout
    printf3.o(i.__0snprintf$3) refers to printf3.o(i._printf_core) for _printf_core
    printf3.o(i.__0snprintf$3) refers to printf3.o(i._snputc) for _snputc
    printf3.o(i.__0sprintf$3) refers to printf3.o(i._printf_core) for _printf_core
    printf3.o(i.__0sprintf$3) refers to printf3.o(i._sputc) for _sputc
    printf3.o(i.__0vfprintf$3) refers to printf3.o(i._printf_core) for _printf_core
    printf3.o(i.__0vfprintf$3) refers to fputc.o(i.fputc) for fputc
    printf3.o(i.__0vprintf$3) refers to printf3.o(i._printf_core) for _printf_core
    printf3.o(i.__0vprintf$3) refers to fputc.o(i.fputc) for fputc
    printf3.o(i.__0vprintf$3) refers to stdout.o(.data) for __stdout
    printf3.o(i.__0vsnprintf$3) refers to printf3.o(i._printf_core) for _printf_core
    printf3.o(i.__0vsnprintf$3) refers to printf3.o(i._snputc) for _snputc
    printf3.o(i.__0vsprintf$3) refers to printf3.o(i._printf_core) for _printf_core
    printf3.o(i.__0vsprintf$3) refers to printf3.o(i._sputc) for _sputc
    printf3.o(i._printf_core) refers to uidiv.o(.text) for __aeabi_uidivmod
    printf4.o(i.__0fprintf$4) refers to printf4.o(i._printf_core) for _printf_core
    printf4.o(i.__0fprintf$4) refers to fputc.o(i.fputc) for fputc
    printf4.o(i.__0printf$4) refers to printf4.o(i._printf_core) for _printf_core
    printf4.o(i.__0printf$4) refers to fputc.o(i.fputc) for fputc
    printf4.o(i.__0printf$4) refers to stdout.o(.data) for __stdout
    printf4.o(i.__0snprintf$4) refers to printf4.o(i._printf_core) for _printf_core
    printf4.o(i.__0snprintf$4) refers to printf4.o(i._snputc) for _snputc
    printf4.o(i.__0sprintf$4) refers to printf4.o(i._printf_core) for _printf_core
    printf4.o(i.__0sprintf$4) refers to printf4.o(i._sputc) for _sputc
    printf4.o(i.__0vfprintf$4) refers to printf4.o(i._printf_core) for _printf_core
    printf4.o(i.__0vfprintf$4) refers to fputc.o(i.fputc) for fputc
    printf4.o(i.__0vprintf$4) refers to printf4.o(i._printf_core) for _printf_core
    printf4.o(i.__0vprintf$4) refers to fputc.o(i.fputc) for fputc
    printf4.o(i.__0vprintf$4) refers to stdout.o(.data) for __stdout
    printf4.o(i.__0vsnprintf$4) refers to printf4.o(i._printf_core) for _printf_core
    printf4.o(i.__0vsnprintf$4) refers to printf4.o(i._snputc) for _snputc
    printf4.o(i.__0vsprintf$4) refers to printf4.o(i._printf_core) for _printf_core
    printf4.o(i.__0vsprintf$4) refers to printf4.o(i._sputc) for _sputc
    printf4.o(i._printf_core) refers to uldiv.o(.text) for __aeabi_uldivmod
    printf5.o(i.__0fprintf$5) refers to printf5.o(i._printf_core) for _printf_core
    printf5.o(i.__0fprintf$5) refers to fputc.o(i.fputc) for fputc
    printf5.o(i.__0printf$5) refers to printf5.o(i._printf_core) for _printf_core
    printf5.o(i.__0printf$5) refers to fputc.o(i.fputc) for fputc
    printf5.o(i.__0printf$5) refers to stdout.o(.data) for __stdout
    printf5.o(i.__0snprintf$5) refers to printf5.o(i._printf_core) for _printf_core
    printf5.o(i.__0snprintf$5) refers to printf5.o(i._snputc) for _snputc
    printf5.o(i.__0sprintf$5) refers to printf5.o(i._printf_core) for _printf_core
    printf5.o(i.__0sprintf$5) refers to printf5.o(i._sputc) for _sputc
    printf5.o(i.__0vfprintf$5) refers to printf5.o(i._printf_core) for _printf_core
    printf5.o(i.__0vfprintf$5) refers to fputc.o(i.fputc) for fputc
    printf5.o(i.__0vprintf$5) refers to printf5.o(i._printf_core) for _printf_core
    printf5.o(i.__0vprintf$5) refers to fputc.o(i.fputc) for fputc
    printf5.o(i.__0vprintf$5) refers to stdout.o(.data) for __stdout
    printf5.o(i.__0vsnprintf$5) refers to printf5.o(i._printf_core) for _printf_core
    printf5.o(i.__0vsnprintf$5) refers to printf5.o(i._snputc) for _snputc
    printf5.o(i.__0vsprintf$5) refers to printf5.o(i._printf_core) for _printf_core
    printf5.o(i.__0vsprintf$5) refers to printf5.o(i._sputc) for _sputc
    printf5.o(i._printf_core) refers to uldiv.o(.text) for __aeabi_uldivmod
    printf6.o(i.__0fprintf$6) refers to printf6.o(i._printf_core) for _printf_core
    printf6.o(i.__0fprintf$6) refers to fputc.o(i.fputc) for fputc
    printf6.o(i.__0printf$6) refers to printf6.o(i._printf_core) for _printf_core
    printf6.o(i.__0printf$6) refers to fputc.o(i.fputc) for fputc
    printf6.o(i.__0printf$6) refers to stdout.o(.data) for __stdout
    printf6.o(i.__0snprintf$6) refers to printf6.o(i._printf_core) for _printf_core
    printf6.o(i.__0snprintf$6) refers to printf6.o(i._snputc) for _snputc
    printf6.o(i.__0sprintf$6) refers to printf6.o(i._printf_core) for _printf_core
    printf6.o(i.__0sprintf$6) refers to printf6.o(i._sputc) for _sputc
    printf6.o(i.__0vfprintf$6) refers to printf6.o(i._printf_core) for _printf_core
    printf6.o(i.__0vfprintf$6) refers to fputc.o(i.fputc) for fputc
    printf6.o(i.__0vprintf$6) refers to printf6.o(i._printf_core) for _printf_core
    printf6.o(i.__0vprintf$6) refers to fputc.o(i.fputc) for fputc
    printf6.o(i.__0vprintf$6) refers to stdout.o(.data) for __stdout
    printf6.o(i.__0vsnprintf$6) refers to printf6.o(i._printf_core) for _printf_core
    printf6.o(i.__0vsnprintf$6) refers to printf6.o(i._snputc) for _snputc
    printf6.o(i.__0vsprintf$6) refers to printf6.o(i._printf_core) for _printf_core
    printf6.o(i.__0vsprintf$6) refers to printf6.o(i._sputc) for _sputc
    printf6.o(i._printf_core) refers to printf6.o(i._printf_pre_padding) for _printf_pre_padding
    printf6.o(i._printf_core) refers to uidiv.o(.text) for __aeabi_uidivmod
    printf6.o(i._printf_core) refers to printf6.o(i._printf_post_padding) for _printf_post_padding
    printf7.o(i.__0fprintf$7) refers to printf7.o(i._printf_core) for _printf_core
    printf7.o(i.__0fprintf$7) refers to fputc.o(i.fputc) for fputc
    printf7.o(i.__0printf$7) refers to printf7.o(i._printf_core) for _printf_core
    printf7.o(i.__0printf$7) refers to fputc.o(i.fputc) for fputc
    printf7.o(i.__0printf$7) refers to stdout.o(.data) for __stdout
    printf7.o(i.__0snprintf$7) refers to printf7.o(i._printf_core) for _printf_core
    printf7.o(i.__0snprintf$7) refers to printf7.o(i._snputc) for _snputc
    printf7.o(i.__0sprintf$7) refers to printf7.o(i._printf_core) for _printf_core
    printf7.o(i.__0sprintf$7) refers to printf7.o(i._sputc) for _sputc
    printf7.o(i.__0vfprintf$7) refers to printf7.o(i._printf_core) for _printf_core
    printf7.o(i.__0vfprintf$7) refers to fputc.o(i.fputc) for fputc
    printf7.o(i.__0vprintf$7) refers to printf7.o(i._printf_core) for _printf_core
    printf7.o(i.__0vprintf$7) refers to fputc.o(i.fputc) for fputc
    printf7.o(i.__0vprintf$7) refers to stdout.o(.data) for __stdout
    printf7.o(i.__0vsnprintf$7) refers to printf7.o(i._printf_core) for _printf_core
    printf7.o(i.__0vsnprintf$7) refers to printf7.o(i._snputc) for _snputc
    printf7.o(i.__0vsprintf$7) refers to printf7.o(i._printf_core) for _printf_core
    printf7.o(i.__0vsprintf$7) refers to printf7.o(i._sputc) for _sputc
    printf7.o(i._printf_core) refers to printf7.o(i._printf_pre_padding) for _printf_pre_padding
    printf7.o(i._printf_core) refers to uldiv.o(.text) for __aeabi_uldivmod
    printf7.o(i._printf_core) refers to printf7.o(i._printf_post_padding) for _printf_post_padding
    printf8.o(i.__0fprintf$8) refers to printf8.o(i._printf_core) for _printf_core
    printf8.o(i.__0fprintf$8) refers to fputc.o(i.fputc) for fputc
    printf8.o(i.__0printf$8) refers to printf8.o(i._printf_core) for _printf_core
    printf8.o(i.__0printf$8) refers to fputc.o(i.fputc) for fputc
    printf8.o(i.__0printf$8) refers to stdout.o(.data) for __stdout
    printf8.o(i.__0snprintf$8) refers to printf8.o(i._printf_core) for _printf_core
    printf8.o(i.__0snprintf$8) refers to printf8.o(i._snputc) for _snputc
    printf8.o(i.__0sprintf$8) refers to printf8.o(i._printf_core) for _printf_core
    printf8.o(i.__0sprintf$8) refers to printf8.o(i._sputc) for _sputc
    printf8.o(i.__0vfprintf$8) refers to printf8.o(i._printf_core) for _printf_core
    printf8.o(i.__0vfprintf$8) refers to fputc.o(i.fputc) for fputc
    printf8.o(i.__0vprintf$8) refers to printf8.o(i._printf_core) for _printf_core
    printf8.o(i.__0vprintf$8) refers to fputc.o(i.fputc) for fputc
    printf8.o(i.__0vprintf$8) refers to stdout.o(.data) for __stdout
    printf8.o(i.__0vsnprintf$8) refers to printf8.o(i._printf_core) for _printf_core
    printf8.o(i.__0vsnprintf$8) refers to printf8.o(i._snputc) for _snputc
    printf8.o(i.__0vsprintf$8) refers to printf8.o(i._printf_core) for _printf_core
    printf8.o(i.__0vsprintf$8) refers to printf8.o(i._sputc) for _sputc
    printf8.o(i._printf_core) refers to printf8.o(i._printf_pre_padding) for _printf_pre_padding
    printf8.o(i._printf_core) refers to uldiv.o(.text) for __aeabi_uldivmod
    printf8.o(i._printf_core) refers to printf8.o(i._printf_post_padding) for _printf_post_padding
    printfa.o(i.__0fprintf) refers (Special) to iusefp.o(.text) for __I$use$fp
    printfa.o(i.__0fprintf) refers to printfa.o(i._printf_core) for _printf_core
    printfa.o(i.__0fprintf) refers to fputc.o(i.fputc) for fputc
    printfa.o(i.__0printf) refers (Special) to iusefp.o(.text) for __I$use$fp
    printfa.o(i.__0printf) refers to printfa.o(i._printf_core) for _printf_core
    printfa.o(i.__0printf) refers to fputc.o(i.fputc) for fputc
    printfa.o(i.__0printf) refers to stdout.o(.data) for __stdout
    printfa.o(i.__0snprintf) refers (Special) to iusefp.o(.text) for __I$use$fp
    printfa.o(i.__0snprintf) refers to printfa.o(i._printf_core) for _printf_core
    printfa.o(i.__0snprintf) refers to printfa.o(i._snputc) for _snputc
    printfa.o(i.__0sprintf) refers (Special) to iusefp.o(.text) for __I$use$fp
    printfa.o(i.__0sprintf) refers to printfa.o(i._printf_core) for _printf_core
    printfa.o(i.__0sprintf) refers to printfa.o(i._sputc) for _sputc
    printfa.o(i.__0vfprintf) refers (Special) to iusefp.o(.text) for __I$use$fp
    printfa.o(i.__0vfprintf) refers to printfa.o(i._printf_core) for _printf_core
    printfa.o(i.__0vfprintf) refers to fputc.o(i.fputc) for fputc
    printfa.o(i.__0vprintf) refers (Special) to iusefp.o(.text) for __I$use$fp
    printfa.o(i.__0vprintf) refers to printfa.o(i._printf_core) for _printf_core
    printfa.o(i.__0vprintf) refers to fputc.o(i.fputc) for fputc
    printfa.o(i.__0vprintf) refers to stdout.o(.data) for __stdout
    printfa.o(i.__0vsnprintf) refers (Special) to iusefp.o(.text) for __I$use$fp
    printfa.o(i.__0vsnprintf) refers to printfa.o(i._printf_core) for _printf_core
    printfa.o(i.__0vsnprintf) refers to printfa.o(i._snputc) for _snputc
    printfa.o(i.__0vsprintf) refers (Special) to iusefp.o(.text) for __I$use$fp
    printfa.o(i.__0vsprintf) refers to printfa.o(i._printf_core) for _printf_core
    printfa.o(i.__0vsprintf) refers to printfa.o(i._sputc) for _sputc
    printfa.o(i._fp_digits) refers (Special) to iusefp.o(.text) for __I$use$fp
    printfa.o(i._fp_digits) refers to dmul.o(.text) for __aeabi_dmul
    printfa.o(i._fp_digits) refers to ddiv.o(.text) for __aeabi_ddiv
    printfa.o(i._fp_digits) refers to cdrcmple.o(.text) for __aeabi_cdrcmple
    printfa.o(i._fp_digits) refers to dadd.o(.text) for __aeabi_dadd
    printfa.o(i._fp_digits) refers to dfixul.o(.text) for __aeabi_d2ulz
    printfa.o(i._fp_digits) refers to uldiv.o(.text) for __aeabi_uldivmod
    printfa.o(i._printf_core) refers (Special) to iusefp.o(.text) for __I$use$fp
    printfa.o(i._printf_core) refers to printfa.o(i._printf_pre_padding) for _printf_pre_padding
    printfa.o(i._printf_core) refers to uldiv.o(.text) for __aeabi_uldivmod
    printfa.o(i._printf_core) refers to printfa.o(i._printf_post_padding) for _printf_post_padding
    printfa.o(i._printf_core) refers to printfa.o(i._fp_digits) for _fp_digits
    printfa.o(i._printf_core) refers to uidiv.o(.text) for __aeabi_uidivmod
    printfa.o(i._printf_post_padding) refers (Special) to iusefp.o(.text) for __I$use$fp
    printfa.o(i._printf_pre_padding) refers (Special) to iusefp.o(.text) for __I$use$fp
    printfa.o(i._snputc) refers (Special) to iusefp.o(.text) for __I$use$fp
    printfa.o(i._sputc) refers (Special) to iusefp.o(.text) for __I$use$fp
    __0sscanf.o(.text) refers to scanf_char.o(.text) for __vfscanf_char
    __0sscanf.o(.text) refers to _sgetc.o(.text) for _sgetc
    _scanf_int.o(.text) refers to _chval.o(.text) for _chval
    entry2.o(.ARM.Collect$$$$00000001) refers to entry2.o(.ARM.Collect$$$$00002712) for __lit__00000000
    entry2.o(.ARM.Collect$$$$00002712) refers to startup_stm32f769xx.o(STACK) for __initial_sp
    entry2.o(__vectab_stack_and_reset_area) refers to startup_stm32f769xx.o(STACK) for __initial_sp
    entry2.o(__vectab_stack_and_reset_area) refers to entry.o(.ARM.Collect$$$$00000000) for __main
    entry5.o(.ARM.Collect$$$$00000004) refers to init.o(.text) for __scatterload
    entry9a.o(.ARM.Collect$$$$0000000B) refers to main.o(.text) for main
    entry9b.o(.ARM.Collect$$$$0000000C) refers to main.o(.text) for main
    fputc.o(i.fputc) refers (Special) to iusesemip.o(.text) for __I$use$semihosting$fputc
    fputc.o(i.fputc) refers (Special) to semi.o(.text) for __semihosting_library_function
    scanf_char.o(.text) refers to _scanf.o(.text) for __vfscanf
    scanf_char.o(.text) refers to isspace_c.o(.text) for isspace
    dadd.o(.text) refers to llshl.o(.text) for __aeabi_llsl
    dadd.o(.text) refers to llsshr.o(.text) for __aeabi_lasr
    dadd.o(.text) refers to depilogue.o(.text) for _double_epilogue
    dmul.o(.text) refers to depilogue.o(.text) for _double_epilogue
    ddiv.o(.text) refers to depilogue.o(.text) for _double_round
    dfixul.o(.text) refers to llushr.o(.text) for __aeabi_llsr
    dfixul.o(.text) refers to llshl.o(.text) for __aeabi_llsl
    init.o(.text) refers to entry5.o(.ARM.Collect$$$$00000004) for __main_after_scatterload
    isspace_c.o(.text) refers to ctype_c.o(.text) for __ctype_lookup
    _scanf.o(.text) refers (Weak) to _scanf_int.o(.text) for _scanf_int
    depilogue.o(.text) refers to llshl.o(.text) for __aeabi_llsl
    depilogue.o(.text) refers to llushr.o(.text) for __aeabi_llsr
    ctype_c.o(.text) refers to ctype_c.o(.constdata) for .constdata
    net_version.o(.ARM.RL_ARM1) refers to net_version.o(.ARM.RL_ARM2) for .ARM.RL_ARM2
    net_version.o(.ARM.RL_ARM2) refers to net_version.o(.ARM.RL_ARM3) for .ARM.RL_ARM3
    net_version.o(.ARM.RL_ARM3) refers to net_version.o(.ARM.RL_ARM4) for .ARM.RL_ARM4
    net_version.o(.ARM.RL_ARM4) refers to net_version.o(.ARM.RL_ARM5) for .ARM.RL_ARM5
    net_version.o(.ARM.RL_ARM5) refers to net_version.o(.ARM.RL_ARM6) for .ARM.RL_ARM6
    net_version.o(.ARM.RL_ARM6) refers to net_version.o(.ARM.RL_ARM1) for .ARM.RL_ARM1


==============================================================================

Removing Unused input sections from the image.

    Removing http_server.o(.rev16_text), (4 bytes).
    Removing http_server.o(.revsh_text), (4 bytes).
    Removing http_server.o(.rrx_text), (6 bytes).
    Removing main.o(.rev16_text), (4 bytes).
    Removing main.o(.revsh_text), (4 bytes).
    Removing main.o(.rrx_text), (6 bytes).
    Removing rtx_delay.o(.rev16_text), (4 bytes).
    Removing rtx_delay.o(.revsh_text), (4 bytes).
    Removing rtx_delay.o(.rrx_text), (6 bytes).
    Removing rtx_delay.o(.emb_text), (328 bytes).
    Removing rtx_evflags.o(.rev16_text), (4 bytes).
    Removing rtx_evflags.o(.revsh_text), (4 bytes).
    Removing rtx_evflags.o(.rrx_text), (6 bytes).
    Removing rtx_evflags.o(.emb_text), (328 bytes).
    Removing rtx_evflags.o(.text), (1604 bytes).
    Removing rtx_evr.o(.rev16_text), (4 bytes).
    Removing rtx_evr.o(.revsh_text), (4 bytes).
    Removing rtx_evr.o(.rrx_text), (6 bytes).
    Removing rtx_kernel.o(.rev16_text), (4 bytes).
    Removing rtx_kernel.o(.revsh_text), (4 bytes).
    Removing rtx_kernel.o(.rrx_text), (6 bytes).
    Removing rtx_kernel.o(.emb_text), (328 bytes).
    Removing rtx_lib.o(.rev16_text), (4 bytes).
    Removing rtx_lib.o(.revsh_text), (4 bytes).
    Removing rtx_lib.o(.rrx_text), (6 bytes).
    Removing rtx_memory.o(.rev16_text), (4 bytes).
    Removing rtx_memory.o(.revsh_text), (4 bytes).
    Removing rtx_memory.o(.rrx_text), (6 bytes).
    Removing rtx_memory.o(.emb_text), (328 bytes).
    Removing rtx_mempool.o(.rev16_text), (4 bytes).
    Removing rtx_mempool.o(.revsh_text), (4 bytes).
    Removing rtx_mempool.o(.rrx_text), (6 bytes).
    Removing rtx_msgqueue.o(.rev16_text), (4 bytes).
    Removing rtx_msgqueue.o(.revsh_text), (4 bytes).
    Removing rtx_msgqueue.o(.rrx_text), (6 bytes).
    Removing rtx_mutex.o(.rev16_text), (4 bytes).
    Removing rtx_mutex.o(.revsh_text), (4 bytes).
    Removing rtx_mutex.o(.rrx_text), (6 bytes).
    Removing rtx_mutex.o(.emb_text), (328 bytes).
    Removing rtx_semaphore.o(.rev16_text), (4 bytes).
    Removing rtx_semaphore.o(.revsh_text), (4 bytes).
    Removing rtx_semaphore.o(.rrx_text), (6 bytes).
    Removing rtx_system.o(.rev16_text), (4 bytes).
    Removing rtx_system.o(.revsh_text), (4 bytes).
    Removing rtx_system.o(.rrx_text), (6 bytes).
    Removing rtx_thread.o(.rev16_text), (4 bytes).
    Removing rtx_thread.o(.revsh_text), (4 bytes).
    Removing rtx_thread.o(.rrx_text), (6 bytes).
    Removing rtx_timer.o(.rev16_text), (4 bytes).
    Removing rtx_timer.o(.revsh_text), (4 bytes).
    Removing rtx_timer.o(.rrx_text), (6 bytes).
    Removing rtx_timer.o(.emb_text), (328 bytes).
    Removing os_systick.o(.rev16_text), (4 bytes).
    Removing os_systick.o(.revsh_text), (4 bytes).
    Removing os_systick.o(.rrx_text), (6 bytes).
    Removing rtx_config.o(.rev16_text), (4 bytes).
    Removing rtx_config.o(.revsh_text), (4 bytes).
    Removing rtx_config.o(.rrx_text), (6 bytes).
    Removing emac_stm32f7xx.o(.rev16_text), (4 bytes).
    Removing emac_stm32f7xx.o(.revsh_text), (4 bytes).
    Removing emac_stm32f7xx.o(.rrx_text), (6 bytes).
    Removing eventrecorder.o(.rev16_text), (4 bytes).
    Removing eventrecorder.o(.revsh_text), (4 bytes).
    Removing eventrecorder.o(.rrx_text), (6 bytes).
    Removing stm32f7xx_hal.o(.rev16_text), (4 bytes).
    Removing stm32f7xx_hal.o(.revsh_text), (4 bytes).
    Removing stm32f7xx_hal.o(.rrx_text), (6 bytes).
    Removing stm32f7xx_hal_adc.o(.rev16_text), (4 bytes).
    Removing stm32f7xx_hal_adc.o(.revsh_text), (4 bytes).
    Removing stm32f7xx_hal_adc.o(.rrx_text), (6 bytes).
    Removing stm32f7xx_hal_adc.o(.text), (3380 bytes).
    Removing stm32f7xx_hal_adc_ex.o(.rev16_text), (4 bytes).
    Removing stm32f7xx_hal_adc_ex.o(.revsh_text), (4 bytes).
    Removing stm32f7xx_hal_adc_ex.o(.rrx_text), (6 bytes).
    Removing stm32f7xx_hal_adc_ex.o(.text), (2324 bytes).
    Removing stm32f7xx_hal_cortex.o(.rev16_text), (4 bytes).
    Removing stm32f7xx_hal_cortex.o(.revsh_text), (4 bytes).
    Removing stm32f7xx_hal_cortex.o(.rrx_text), (6 bytes).
    Removing stm32f7xx_hal_dma.o(.rev16_text), (4 bytes).
    Removing stm32f7xx_hal_dma.o(.revsh_text), (4 bytes).
    Removing stm32f7xx_hal_dma.o(.rrx_text), (6 bytes).
    Removing stm32f7xx_hal_dma.o(.text), (2240 bytes).
    Removing stm32f7xx_hal_dma.o(.constdata), (8 bytes).
    Removing stm32f7xx_hal_dma_ex.o(.rev16_text), (4 bytes).
    Removing stm32f7xx_hal_dma_ex.o(.revsh_text), (4 bytes).
    Removing stm32f7xx_hal_dma_ex.o(.rrx_text), (6 bytes).
    Removing stm32f7xx_hal_dma_ex.o(.text), (4212 bytes).
    Removing stm32f7xx_hal_gpio.o(.rev16_text), (4 bytes).
    Removing stm32f7xx_hal_gpio.o(.revsh_text), (4 bytes).
    Removing stm32f7xx_hal_gpio.o(.rrx_text), (6 bytes).
    Removing stm32f7xx_hal_pwr.o(.rev16_text), (4 bytes).
    Removing stm32f7xx_hal_pwr.o(.revsh_text), (4 bytes).
    Removing stm32f7xx_hal_pwr.o(.rrx_text), (6 bytes).
    Removing stm32f7xx_hal_pwr.o(.text), (536 bytes).
    Removing stm32f7xx_hal_pwr_ex.o(.rev16_text), (4 bytes).
    Removing stm32f7xx_hal_pwr_ex.o(.revsh_text), (4 bytes).
    Removing stm32f7xx_hal_pwr_ex.o(.rrx_text), (6 bytes).
    Removing stm32f7xx_hal_rcc.o(.rev16_text), (4 bytes).
    Removing stm32f7xx_hal_rcc.o(.revsh_text), (4 bytes).
    Removing stm32f7xx_hal_rcc.o(.rrx_text), (6 bytes).
    Removing stm32f7xx_hal_rcc_ex.o(.rev16_text), (4 bytes).
    Removing stm32f7xx_hal_rcc_ex.o(.revsh_text), (4 bytes).
    Removing stm32f7xx_hal_rcc_ex.o(.rrx_text), (6 bytes).
    Removing stm32f7xx_hal_rcc_ex.o(.text), (3228 bytes).
    Removing stm32f7xx_hal_sram.o(.rev16_text), (4 bytes).
    Removing stm32f7xx_hal_sram.o(.revsh_text), (4 bytes).
    Removing stm32f7xx_hal_sram.o(.rrx_text), (6 bytes).
    Removing stm32f7xx_hal_sram.o(.text), (1208 bytes).
    Removing stm32f7xx_ll_fmc.o(.rev16_text), (4 bytes).
    Removing stm32f7xx_ll_fmc.o(.revsh_text), (4 bytes).
    Removing stm32f7xx_ll_fmc.o(.rrx_text), (6 bytes).
    Removing stm32f7xx_ll_fmc.o(.text), (1084 bytes).
    Removing startup_stm32f769xx.o(HEAP), (512 bytes).
    Removing system_stm32f7xx.o(.rev16_text), (4 bytes).
    Removing system_stm32f7xx.o(.revsh_text), (4 bytes).
    Removing system_stm32f7xx.o(.rrx_text), (6 bytes).
    Removing net_eth.o(i.netETH_SendRaw), (176 bytes).
    Removing net_eth.o(i.net_eth_get_addr), (44 bytes).
    Removing net_eth.o(.bss), (160 bytes).
    Removing net_arp.o(i.arp_probe_start), (148 bytes).
    Removing net_arp.o(i.netARP_CacheIP), (144 bytes).
    Removing net_arp.o(i.netARP_CacheMAC), (348 bytes).
    Removing net_arp.o(i.netARP_ClearCache), (152 bytes).
    Removing net_arp.o(i.netARP_GetIP), (188 bytes).
    Removing net_arp.o(i.netARP_GetMAC), (144 bytes).
    Removing net_arp.o(i.netARP_Probe), (74 bytes).
    Removing net_arp.o(i.netARP_ProbeX), (132 bytes).
    Removing net_arp.o(i.net_arp_find_mac), (44 bytes).
    Removing net_arp.o(i.net_arp_probe), (18 bytes).
    Removing net_arp.o(.bss), (24 bytes).
    Removing net_arp.o(.bss), (24 bytes).
    Removing net_arp.o(.bss), (24 bytes).
    Removing net_icmp.o(i.netICMP_SetNoEcho), (28 bytes).
    Removing net_icmp.o(.data), (1 bytes).
    Removing net_icmp.o(.data), (1 bytes).
    Removing net_icmp.o(.data), (1 bytes).
    Removing net_icmp.o(.data), (1 bytes).
    Removing net_icmp.o(.data), (1 bytes).
    Removing net_udp.o(i.netUDP_Close), (24 bytes).
    Removing net_udp.o(i.netUDP_GetBuffer), (8 bytes).
    Removing net_udp.o(i.netUDP_GetLocalPort), (4 bytes).
    Removing net_udp.o(i.netUDP_GetSocket), (24 bytes).
    Removing net_udp.o(i.netUDP_Open), (28 bytes).
    Removing net_udp.o(i.netUDP_ReleaseSocket), (24 bytes).
    Removing net_udp.o(i.netUDP_Send), (38 bytes).
    Removing net_udp.o(i.netUDP_SetOption), (32 bytes).
    Removing net_udp.o(i.net_udp_close), (72 bytes).
    Removing net_udp.o(i.net_udp_enable_lla), (40 bytes).
    Removing net_udp.o(i.net_udp_free_buf), (6 bytes).
    Removing net_udp.o(i.net_udp_get_local_port), (44 bytes).
    Removing net_udp.o(i.net_udp_get_option), (80 bytes).
    Removing net_udp.o(i.net_udp_keep_buf), (56 bytes).
    Removing net_udp.o(i.net_udp_release_socket), (96 bytes).
    Removing net_udp.o(i.net_udp_send), (18 bytes).
    Removing net_udp.o(i.net_udp_set_option), (260 bytes).
    Removing net_tcp.o(i.netTCP_Abort), (24 bytes).
    Removing net_tcp.o(i.netTCP_Close), (24 bytes).
    Removing net_tcp.o(i.netTCP_Connect), (32 bytes).
    Removing net_tcp.o(i.netTCP_GetBuffer), (8 bytes).
    Removing net_tcp.o(i.netTCP_GetLocalPort), (4 bytes).
    Removing net_tcp.o(i.netTCP_GetMaxSegmentSize), (4 bytes).
    Removing net_tcp.o(i.netTCP_GetPeer), (32 bytes).
    Removing net_tcp.o(i.netTCP_GetSocket), (24 bytes).
    Removing net_tcp.o(i.netTCP_GetState), (4 bytes).
    Removing net_tcp.o(i.netTCP_GetTimer), (4 bytes).
    Removing net_tcp.o(i.netTCP_Listen), (28 bytes).
    Removing net_tcp.o(i.netTCP_ReleaseSocket), (24 bytes).
    Removing net_tcp.o(i.netTCP_ResetReceiveWindow), (24 bytes).
    Removing net_tcp.o(i.netTCP_Send), (38 bytes).
    Removing net_tcp.o(i.netTCP_SendReady), (4 bytes).
    Removing net_tcp.o(i.netTCP_SetOption), (32 bytes).
    Removing net_tcp.o(i.net_tcp_alloc_port), (76 bytes).
    Removing net_tcp.o(i.net_tcp_check_send), (92 bytes).
    Removing net_tcp.o(i.net_tcp_connect), (360 bytes).
    Removing net_tcp.o(i.net_tcp_ctrl_opt), (68 bytes).
    Removing net_tcp.o(i.net_tcp_get_local_addr), (52 bytes).
    Removing net_tcp.o(i.net_tcp_get_local_port), (52 bytes).
    Removing net_tcp.o(i.net_tcp_get_option), (96 bytes).
    Removing net_tcp.o(i.net_tcp_get_peer), (84 bytes).
    Removing net_tcp.o(i.net_tcp_get_peer_ptr), (44 bytes).
    Removing net_tcp.o(i.net_tcp_get_timer), (52 bytes).
    Removing net_tcp.o(i.net_tcp_ntoa), (12 bytes).
    Removing net_tcp.o(i.net_tcp_release_socket), (104 bytes).
    Removing net_tcp.o(i.net_tcp_reset_tout), (48 bytes).
    Removing net_tcp.o(i.net_tcp_reset_window), (144 bytes).
    Removing net_tcp.o(i.net_tcp_set_cb), (48 bytes).
    Removing net_tcp.o(.constdata), (44 bytes).
    Removing net_tcp.o(.conststring), (112 bytes).
    Removing net_http_server.o(i.http_server_stop), (84 bytes).
    Removing net_http_server.o(i.netCGI_ProcessData), (2 bytes).
    Removing net_http_server.o(i.netCGI_ProcessQuery), (2 bytes).
    Removing net_http_server.o(i.netCGI_Script), (4 bytes).
    Removing net_http_server.o(i.netHTTPs_CalcHashHA1), (76 bytes).
    Removing net_http_server.o(i.netHTTPs_GetClient), (44 bytes).
    Removing net_http_server.o(i.netHTTPs_GetContentType), (44 bytes).
    Removing net_http_server.o(i.netHTTPs_GetLanguage), (32 bytes).
    Removing net_http_server.o(i.netHTTPs_GetPassword), (12 bytes).
    Removing net_http_server.o(i.netHTTPs_GetPort), (12 bytes).
    Removing net_http_server.o(i.netHTTPs_GetRootPath), (12 bytes).
    Removing net_http_server.o(i.netHTTPs_GetSession), (12 bytes).
    Removing net_http_server.o(i.netHTTPs_GetUserId), (32 bytes).
    Removing net_http_server.o(i.netHTTPs_GetUsername), (12 bytes).
    Removing net_http_server.o(i.netHTTPs_LoginActive), (12 bytes).
    Removing net_http_server.o(i.netHTTPs_LoginOnOff), (28 bytes).
    Removing net_http_server.o(i.netHTTPs_Running), (12 bytes).
    Removing net_http_server.o(i.netHTTPs_SetPassword), (88 bytes).
    Removing net_http_server.o(i.netHTTPs_SetPort), (20 bytes).
    Removing net_http_server.o(i.netHTTPs_SetRootPath), (96 bytes).
    Removing net_http_server.o(i.netHTTPs_SetUsername), (88 bytes).
    Removing net_http_server.o(i.netHTTPs_Start), (32 bytes).
    Removing net_http_server.o(i.netHTTPs_Stop), (32 bytes).
    Removing net_http_server.o(i.net_http_time), (116 bytes).
    Removing net_http_server_auth.o(i.get_nonce), (104 bytes).
    Removing net_http_server_auth.o(i.get_rnd), (32 bytes).
    Removing net_http_server_auth.o(i.http_auth_digest_add), (224 bytes).
    Removing net_http_server_auth.o(i.http_auth_digest_hash), (112 bytes).
    Removing net_http_server_auth.o(i.http_auth_digest_init), (32 bytes).
    Removing net_http_server_auth.o(i.http_auth_digest_parse), (1092 bytes).
    Removing net_http_server_auth.o(i.http_auth_digest_uninit), (20 bytes).
    Removing net_http_server_auth.o(i.netHTTPs_GetUserSecret), (2 bytes).
    Removing net_http_server_auth.o(i.verify_nonce), (100 bytes).
    Removing net_http_server_auth.o(.constdata), (24 bytes).
    Removing net_ping_core.o(i.netPing_Echo), (28 bytes).
    Removing net_ping_core.o(i.net_ping_client_start), (232 bytes).
    Removing net_sys.o(i.netIF_GetOption), (136 bytes).
    Removing net_sys.o(i.netIF_SetDefault), (68 bytes).
    Removing net_sys.o(i.netSYS_GetHostName), (12 bytes).
    Removing net_sys.o(i.netSYS_SetHostName), (72 bytes).
    Removing net_sys.o(i.netUninitialize), (104 bytes).
    Removing net_sys.o(i.net_if_map_lan), (12 bytes).
    Removing net_sys.o(i.net_sys_suspend), (44 bytes).
    Removing net_sys.o(i.net_sys_wait), (26 bytes).
    Removing net_addr.o(i.ip4_ntoa), (64 bytes).
    Removing net_addr.o(i.ip6_ntoa), (202 bytes).
    Removing net_addr.o(i.mac_ntoa), (62 bytes).
    Removing net_addr.o(i.netIP_ntoa), (50 bytes).
    Removing net_addr.o(i.netMAC_ntoa), (16 bytes).
    Removing net_addr.o(i.net_addr4_ntoa), (12 bytes).
    Removing net_addr.o(i.net_addr6_ntoa), (12 bytes).
    Removing net_addr.o(i.net_addr_comp), (44 bytes).
    Removing net_addr.o(i.net_addr_copy), (38 bytes).
    Removing net_addr.o(i.net_addr_get_lhost), (36 bytes).
    Removing net_addr.o(i.net_addr_ntoa), (14 bytes).
    Removing net_addr.o(i.net_mac_ntoa), (12 bytes).
    Removing net_ndp.o(i.ndp_cache_run), (364 bytes).
    Removing net_ndp.o(i.ndp_probe_run), (156 bytes).
    Removing net_ndp.o(i.ndp_probe_start), (168 bytes).
    Removing net_ndp.o(i.ndp_slaac_run), (416 bytes).
    Removing net_ndp.o(i.netNDP_CacheIP), (136 bytes).
    Removing net_ndp.o(i.netNDP_ClearCache), (164 bytes).
    Removing net_ndp.o(i.netNDP_GetIP), (200 bytes).
    Removing net_ndp.o(i.netNDP_GetMAC), (156 bytes).
    Removing net_ndp.o(i.netNDP_Probe), (74 bytes).
    Removing net_ndp.o(i.netNDP_ProbeX), (134 bytes).
    Removing net_ndp.o(i.net_ndp_cache_init), (128 bytes).
    Removing net_ndp.o(i.net_ndp_cache_mac), (82 bytes).
    Removing net_ndp.o(i.net_ndp_cache_run), (28 bytes).
    Removing net_ndp.o(i.net_ndp_cache_uninit), (60 bytes).
    Removing net_ndp.o(i.net_ndp_find_mac), (54 bytes).
    Removing net_ndp.o(.bss), (68 bytes).
    Removing net_ndp.o(.bss), (68 bytes).
    Removing net_ndp.o(.bss), (68 bytes).
    Removing net_ndp.o(.bss), (68 bytes).
    Removing net_ip4.o(i.net_ip4_def_localm), (16 bytes).
    Removing net_ip4.o(i.net_ip4_set_netif), (36 bytes).
    Removing net_ip6.o(i.net_ip6_def_localm), (16 bytes).
    Removing net_ip6.o(i.net_ip6_set_netif), (36 bytes).
    Removing net_ip6.o(.constdata), (16 bytes).
    Removing net_icmp6.o(i.netICMP6_SetNoEcho), (28 bytes).
    Removing net_icmp6.o(.data), (1 bytes).
    Removing net_icmp6.o(.data), (1 bytes).
    Removing net_icmp6.o(.data), (1 bytes).
    Removing net_icmp6.o(.data), (1 bytes).
    Removing net_mem.o(i.net_mem_uninit), (52 bytes).
    Removing net_common.o(i.net_bin2hex), (48 bytes).
    Removing net_common.o(i.net_itoa_n), (6 bytes).
    Removing net_common.o(i.net_strcrc), (26 bytes).
    Removing net_common.o(i.net_ultoa_n), (6 bytes).
    Removing net_common.o(i.net_ultoa_n0), (6 bytes).
    Removing net_common.o(i.net_ultox), (48 bytes).
    Removing net_common.o(.constdata), (16 bytes).
    Removing net_md5.o(i.md5_transform), (368 bytes).
    Removing net_md5.o(i.net_md5_final), (80 bytes).
    Removing net_md5.o(i.net_md5_init), (36 bytes).
    Removing net_md5.o(i.net_md5_update), (104 bytes).
    Removing net_md5.o(.constdata), (272 bytes).
    Removing net_base64.o(i.net_base64_encode), (160 bytes).
    Removing dadd.o(.text), (334 bytes).
    Removing dmul.o(.text), (228 bytes).
    Removing ddiv.o(.text), (222 bytes).
    Removing dfixul.o(.text), (48 bytes).
    Removing cdrcmple.o(.text), (48 bytes).
    Removing depilogue.o(.text), (186 bytes).
    Removing net_version.o(.ARM.RL_ARM1), (82 bytes).
    Removing net_version.o(.ARM.RL_ARM2), (76 bytes).
    Removing net_version.o(.ARM.RL_ARM3), (45 bytes).
    Removing net_version.o(.ARM.RL_ARM4), (65 bytes).
    Removing net_version.o(.ARM.RL_ARM5), (82 bytes).
    Removing net_version.o(.ARM.RL_ARM6), (77 bytes).

299 unused section(s) (total 36702 bytes) removed from the image.

==============================================================================

Image Symbol Table

    Local Symbols

    Symbol Name                              Value     Ov Type        Size  Object(Section)

    ../clib/../cmprslib/zerorunl2.c          0x00000000   Number         0  __dczerorl2.o ABSOLUTE
    ../clib/microlib/ctype/ctype.c           0x00000000   Number         0  isspace_c.o ABSOLUTE
    ../clib/microlib/ctype/ctype.c           0x00000000   Number         0  ctype_c.o ABSOLUTE
    ../clib/microlib/division.c              0x00000000   Number         0  uidiv.o ABSOLUTE
    ../clib/microlib/division.c              0x00000000   Number         0  uldiv.o ABSOLUTE
    ../clib/microlib/init/entry.s            0x00000000   Number         0  entry7b.o ABSOLUTE
    ../clib/microlib/init/entry.s            0x00000000   Number         0  entry9a.o ABSOLUTE
    ../clib/microlib/init/entry.s            0x00000000   Number         0  entry8a.o ABSOLUTE
    ../clib/microlib/init/entry.s            0x00000000   Number         0  entry12a.o ABSOLUTE
    ../clib/microlib/init/entry.s            0x00000000   Number         0  entry9b.o ABSOLUTE
    ../clib/microlib/init/entry.s            0x00000000   Number         0  entry11b.o ABSOLUTE
    ../clib/microlib/init/entry.s            0x00000000   Number         0  entry2.o ABSOLUTE
    ../clib/microlib/init/entry.s            0x00000000   Number         0  entry12b.o ABSOLUTE
    ../clib/microlib/init/entry.s            0x00000000   Number         0  entry5.o ABSOLUTE
    ../clib/microlib/init/entry.s            0x00000000   Number         0  entry10a.o ABSOLUTE
    ../clib/microlib/init/entry.s            0x00000000   Number         0  entry10b.o ABSOLUTE
    ../clib/microlib/init/entry.s            0x00000000   Number         0  entry11a.o ABSOLUTE
    ../clib/microlib/init/entry.s            0x00000000   Number         0  entry8b.o ABSOLUTE
    ../clib/microlib/init/entry.s            0x00000000   Number         0  entry7a.o ABSOLUTE
    ../clib/microlib/init/entry.s            0x00000000   Number         0  entry.o ABSOLUTE
    ../clib/microlib/longlong.c              0x00000000   Number         0  llushr.o ABSOLUTE
    ../clib/microlib/longlong.c              0x00000000   Number         0  llshl.o ABSOLUTE
    ../clib/microlib/longlong.c              0x00000000   Number         0  llsshr.o ABSOLUTE
    ../clib/microlib/printf/printf.c         0x00000000   Number         0  printf5.o ABSOLUTE
    ../clib/microlib/printf/printf.c         0x00000000   Number         0  printf6.o ABSOLUTE
    ../clib/microlib/printf/printf.c         0x00000000   Number         0  printf7.o ABSOLUTE
    ../clib/microlib/printf/printf.c         0x00000000   Number         0  printf8.o ABSOLUTE
    ../clib/microlib/printf/printf.c         0x00000000   Number         0  printf3.o ABSOLUTE
    ../clib/microlib/printf/printf.c         0x00000000   Number         0  printf2.o ABSOLUTE
    ../clib/microlib/printf/printf.c         0x00000000   Number         0  printfa.o ABSOLUTE
    ../clib/microlib/printf/printf.c         0x00000000   Number         0  printf1.o ABSOLUTE
    ../clib/microlib/printf/printf.c         0x00000000   Number         0  printf0.o ABSOLUTE
    ../clib/microlib/printf/printf.c         0x00000000   Number         0  printfb.o ABSOLUTE
    ../clib/microlib/printf/printf.c         0x00000000   Number         0  printf4.o ABSOLUTE
    ../clib/microlib/printf/stubs.s          0x00000000   Number         0  stubs.o ABSOLUTE
    ../clib/microlib/stdio/fputc.c           0x00000000   Number         0  fputc.o ABSOLUTE
    ../clib/microlib/stdio/semi.s            0x00000000   Number         0  semi.o ABSOLUTE
    ../clib/microlib/stdio/streams.c         0x00000000   Number         0  stdout.o ABSOLUTE
    ../clib/microlib/string/memcmp.c         0x00000000   Number         0  memcmp.o ABSOLUTE
    ../clib/microlib/string/memcpy.c         0x00000000   Number         0  memcpya.o ABSOLUTE
    ../clib/microlib/string/memcpy.c         0x00000000   Number         0  memcpyb.o ABSOLUTE
    ../clib/microlib/string/memset.c         0x00000000   Number         0  memseta.o ABSOLUTE
    ../clib/microlib/string/strcmp.c         0x00000000   Number         0  strcmp.o ABSOLUTE
    ../clib/microlib/string/strlen.c         0x00000000   Number         0  strlen.o ABSOLUTE
    ../clib/microlib/string/strncmp.c        0x00000000   Number         0  strncmp.o ABSOLUTE
    ../clib/microlib/stubs.s                 0x00000000   Number         0  iusefp.o ABSOLUTE
    ../clib/microlib/stubs.s                 0x00000000   Number         0  iusesemip.o ABSOLUTE
    ../clib/scanf.c                          0x00000000   Number         0  __0sscanf.o ABSOLUTE
    ../clib/scanf.c                          0x00000000   Number         0  scanf_char.o ABSOLUTE
    ../clib/scanf.c                          0x00000000   Number         0  _sgetc.o ABSOLUTE
    ../clib/scanf.c                          0x00000000   Number         0  _chval.o ABSOLUTE
    ../clib/scanf.c                          0x00000000   Number         0  _scanf_int.o ABSOLUTE
    ../clib/scanf.c                          0x00000000   Number         0  _scanf.o ABSOLUTE
    ../fplib/microlib/fpadd.c                0x00000000   Number         0  dadd.o ABSOLUTE
    ../fplib/microlib/fpdiv.c                0x00000000   Number         0  ddiv.o ABSOLUTE
    ../fplib/microlib/fpepilogue.c           0x00000000   Number         0  depilogue.o ABSOLUTE
    ../fplib/microlib/fpfix.c                0x00000000   Number         0  dfixul.o ABSOLUTE
    ../fplib/microlib/fpmul.c                0x00000000   Number         0  dmul.o ABSOLUTE
    C:\Users\X421\AppData\Local\Arm\Packs\ARM\CMSIS-Driver\2.6.1\ETH\PHY_LAN8742A.c 0x00000000   Number         0  phy_lan8742a.o ABSOLUTE
    C:\Users\X421\AppData\Local\Arm\Packs\ARM\CMSIS\5.8.0\CMSIS\RTOS2\RTX\Source\ARM\irq_armv7m.s 0x00000000   Number         0  irq_armv7m.o ABSOLUTE
    C:\Users\X421\AppData\Local\Arm\Packs\ARM\CMSIS\5.8.0\CMSIS\RTOS2\RTX\Source\rtx_delay.c 0x00000000   Number         0  rtx_delay.o ABSOLUTE
    C:\Users\X421\AppData\Local\Arm\Packs\ARM\CMSIS\5.8.0\CMSIS\RTOS2\RTX\Source\rtx_evflags.c 0x00000000   Number         0  rtx_evflags.o ABSOLUTE
    C:\Users\X421\AppData\Local\Arm\Packs\ARM\CMSIS\5.8.0\CMSIS\RTOS2\RTX\Source\rtx_evr.c 0x00000000   Number         0  rtx_evr.o ABSOLUTE
    C:\Users\X421\AppData\Local\Arm\Packs\ARM\CMSIS\5.8.0\CMSIS\RTOS2\RTX\Source\rtx_kernel.c 0x00000000   Number         0  rtx_kernel.o ABSOLUTE
    C:\Users\X421\AppData\Local\Arm\Packs\ARM\CMSIS\5.8.0\CMSIS\RTOS2\RTX\Source\rtx_lib.c 0x00000000   Number         0  rtx_lib.o ABSOLUTE
    C:\Users\X421\AppData\Local\Arm\Packs\ARM\CMSIS\5.8.0\CMSIS\RTOS2\RTX\Source\rtx_memory.c 0x00000000   Number         0  rtx_memory.o ABSOLUTE
    C:\Users\X421\AppData\Local\Arm\Packs\ARM\CMSIS\5.8.0\CMSIS\RTOS2\RTX\Source\rtx_mempool.c 0x00000000   Number         0  rtx_mempool.o ABSOLUTE
    C:\Users\X421\AppData\Local\Arm\Packs\ARM\CMSIS\5.8.0\CMSIS\RTOS2\RTX\Source\rtx_msgqueue.c 0x00000000   Number         0  rtx_msgqueue.o ABSOLUTE
    C:\Users\X421\AppData\Local\Arm\Packs\ARM\CMSIS\5.8.0\CMSIS\RTOS2\RTX\Source\rtx_mutex.c 0x00000000   Number         0  rtx_mutex.o ABSOLUTE
    C:\Users\X421\AppData\Local\Arm\Packs\ARM\CMSIS\5.8.0\CMSIS\RTOS2\RTX\Source\rtx_semaphore.c 0x00000000   Number         0  rtx_semaphore.o ABSOLUTE
    C:\Users\X421\AppData\Local\Arm\Packs\ARM\CMSIS\5.8.0\CMSIS\RTOS2\RTX\Source\rtx_system.c 0x00000000   Number         0  rtx_system.o ABSOLUTE
    C:\Users\X421\AppData\Local\Arm\Packs\ARM\CMSIS\5.8.0\CMSIS\RTOS2\RTX\Source\rtx_thread.c 0x00000000   Number         0  rtx_thread.o ABSOLUTE
    C:\Users\X421\AppData\Local\Arm\Packs\ARM\CMSIS\5.8.0\CMSIS\RTOS2\RTX\Source\rtx_timer.c 0x00000000   Number         0  rtx_timer.o ABSOLUTE
    C:\Users\X421\AppData\Local\Arm\Packs\ARM\CMSIS\5.8.0\CMSIS\RTOS2\Source\os_systick.c 0x00000000   Number         0  os_systick.o ABSOLUTE
    C:\Users\X421\AppData\Local\Arm\Packs\Keil\ARM_Compiler\1.7.2\Source\EventRecorder.c 0x00000000   Number         0  eventrecorder.o ABSOLUTE
    C:\Users\X421\AppData\Local\Arm\Packs\Keil\STM32F7xx_DFP\2.16.0\CMSIS\Driver\EMAC_STM32F7xx.c 0x00000000   Number         0  emac_stm32f7xx.o ABSOLUTE
    C:\Users\X421\AppData\Local\Arm\Packs\Keil\STM32F7xx_DFP\2.16.0\Drivers\STM32F7xx_HAL_Driver\Src\stm32f7xx_hal.c 0x00000000   Number         0  stm32f7xx_hal.o ABSOLUTE
    C:\Users\X421\AppData\Local\Arm\Packs\Keil\STM32F7xx_DFP\2.16.0\Drivers\STM32F7xx_HAL_Driver\Src\stm32f7xx_hal_adc.c 0x00000000   Number         0  stm32f7xx_hal_adc.o ABSOLUTE
    C:\Users\X421\AppData\Local\Arm\Packs\Keil\STM32F7xx_DFP\2.16.0\Drivers\STM32F7xx_HAL_Driver\Src\stm32f7xx_hal_adc_ex.c 0x00000000   Number         0  stm32f7xx_hal_adc_ex.o ABSOLUTE
    C:\Users\X421\AppData\Local\Arm\Packs\Keil\STM32F7xx_DFP\2.16.0\Drivers\STM32F7xx_HAL_Driver\Src\stm32f7xx_hal_cortex.c 0x00000000   Number         0  stm32f7xx_hal_cortex.o ABSOLUTE
    C:\Users\X421\AppData\Local\Arm\Packs\Keil\STM32F7xx_DFP\2.16.0\Drivers\STM32F7xx_HAL_Driver\Src\stm32f7xx_hal_dma.c 0x00000000   Number         0  stm32f7xx_hal_dma.o ABSOLUTE
    C:\Users\X421\AppData\Local\Arm\Packs\Keil\STM32F7xx_DFP\2.16.0\Drivers\STM32F7xx_HAL_Driver\Src\stm32f7xx_hal_dma_ex.c 0x00000000   Number         0  stm32f7xx_hal_dma_ex.o ABSOLUTE
    C:\Users\X421\AppData\Local\Arm\Packs\Keil\STM32F7xx_DFP\2.16.0\Drivers\STM32F7xx_HAL_Driver\Src\stm32f7xx_hal_gpio.c 0x00000000   Number         0  stm32f7xx_hal_gpio.o ABSOLUTE
    C:\Users\X421\AppData\Local\Arm\Packs\Keil\STM32F7xx_DFP\2.16.0\Drivers\STM32F7xx_HAL_Driver\Src\stm32f7xx_hal_pwr.c 0x00000000   Number         0  stm32f7xx_hal_pwr.o ABSOLUTE
    C:\Users\X421\AppData\Local\Arm\Packs\Keil\STM32F7xx_DFP\2.16.0\Drivers\STM32F7xx_HAL_Driver\Src\stm32f7xx_hal_pwr_ex.c 0x00000000   Number         0  stm32f7xx_hal_pwr_ex.o ABSOLUTE
    C:\Users\X421\AppData\Local\Arm\Packs\Keil\STM32F7xx_DFP\2.16.0\Drivers\STM32F7xx_HAL_Driver\Src\stm32f7xx_hal_rcc.c 0x00000000   Number         0  stm32f7xx_hal_rcc.o ABSOLUTE
    C:\Users\X421\AppData\Local\Arm\Packs\Keil\STM32F7xx_DFP\2.16.0\Drivers\STM32F7xx_HAL_Driver\Src\stm32f7xx_hal_rcc_ex.c 0x00000000   Number         0  stm32f7xx_hal_rcc_ex.o ABSOLUTE
    C:\Users\X421\AppData\Local\Arm\Packs\Keil\STM32F7xx_DFP\2.16.0\Drivers\STM32F7xx_HAL_Driver\Src\stm32f7xx_hal_sram.c 0x00000000   Number         0  stm32f7xx_hal_sram.o ABSOLUTE
    C:\Users\X421\AppData\Local\Arm\Packs\Keil\STM32F7xx_DFP\2.16.0\Drivers\STM32F7xx_HAL_Driver\Src\stm32f7xx_ll_fmc.c 0x00000000   Number         0  stm32f7xx_ll_fmc.o ABSOLUTE
    C:\\Users\\X421\\AppData\\Local\\Arm\\Packs\\ARM\\CMSIS\\5.8.0\\CMSIS\\RTOS2\\RTX\\Source\\rtx_delay.c 0x00000000   Number         0  rtx_delay.o ABSOLUTE
    C:\\Users\\X421\\AppData\\Local\\Arm\\Packs\\ARM\\CMSIS\\5.8.0\\CMSIS\\RTOS2\\RTX\\Source\\rtx_evflags.c 0x00000000   Number         0  rtx_evflags.o ABSOLUTE
    C:\\Users\\X421\\AppData\\Local\\Arm\\Packs\\ARM\\CMSIS\\5.8.0\\CMSIS\\RTOS2\\RTX\\Source\\rtx_evr.c 0x00000000   Number         0  rtx_evr.o ABSOLUTE
    C:\\Users\\X421\\AppData\\Local\\Arm\\Packs\\ARM\\CMSIS\\5.8.0\\CMSIS\\RTOS2\\RTX\\Source\\rtx_kernel.c 0x00000000   Number         0  rtx_kernel.o ABSOLUTE
    C:\\Users\\X421\\AppData\\Local\\Arm\\Packs\\ARM\\CMSIS\\5.8.0\\CMSIS\\RTOS2\\RTX\\Source\\rtx_lib.c 0x00000000   Number         0  rtx_lib.o ABSOLUTE
    C:\\Users\\X421\\AppData\\Local\\Arm\\Packs\\ARM\\CMSIS\\5.8.0\\CMSIS\\RTOS2\\RTX\\Source\\rtx_memory.c 0x00000000   Number         0  rtx_memory.o ABSOLUTE
    C:\\Users\\X421\\AppData\\Local\\Arm\\Packs\\ARM\\CMSIS\\5.8.0\\CMSIS\\RTOS2\\RTX\\Source\\rtx_mempool.c 0x00000000   Number         0  rtx_mempool.o ABSOLUTE
    C:\\Users\\X421\\AppData\\Local\\Arm\\Packs\\ARM\\CMSIS\\5.8.0\\CMSIS\\RTOS2\\RTX\\Source\\rtx_msgqueue.c 0x00000000   Number         0  rtx_msgqueue.o ABSOLUTE
    C:\\Users\\X421\\AppData\\Local\\Arm\\Packs\\ARM\\CMSIS\\5.8.0\\CMSIS\\RTOS2\\RTX\\Source\\rtx_mutex.c 0x00000000   Number         0  rtx_mutex.o ABSOLUTE
    C:\\Users\\X421\\AppData\\Local\\Arm\\Packs\\ARM\\CMSIS\\5.8.0\\CMSIS\\RTOS2\\RTX\\Source\\rtx_semaphore.c 0x00000000   Number         0  rtx_semaphore.o ABSOLUTE
    C:\\Users\\X421\\AppData\\Local\\Arm\\Packs\\ARM\\CMSIS\\5.8.0\\CMSIS\\RTOS2\\RTX\\Source\\rtx_system.c 0x00000000   Number         0  rtx_system.o ABSOLUTE
    C:\\Users\\X421\\AppData\\Local\\Arm\\Packs\\ARM\\CMSIS\\5.8.0\\CMSIS\\RTOS2\\RTX\\Source\\rtx_thread.c 0x00000000   Number         0  rtx_thread.o ABSOLUTE
    C:\\Users\\X421\\AppData\\Local\\Arm\\Packs\\ARM\\CMSIS\\5.8.0\\CMSIS\\RTOS2\\RTX\\Source\\rtx_timer.c 0x00000000   Number         0  rtx_timer.o ABSOLUTE
    C:\\Users\\X421\\AppData\\Local\\Arm\\Packs\\ARM\\CMSIS\\5.8.0\\CMSIS\\RTOS2\\Source\\os_systick.c 0x00000000   Number         0  os_systick.o ABSOLUTE
    C:\\Users\\X421\\AppData\\Local\\Arm\\Packs\\Keil\\ARM_Compiler\\1.7.2\\Source\\EventRecorder.c 0x00000000   Number         0  eventrecorder.o ABSOLUTE
    C:\\Users\\X421\\AppData\\Local\\Arm\\Packs\\Keil\\STM32F7xx_DFP\\2.16.0\\CMSIS\\Driver\\EMAC_STM32F7xx.c 0x00000000   Number         0  emac_stm32f7xx.o ABSOLUTE
    C:\\Users\\X421\\AppData\\Local\\Arm\\Packs\\Keil\\STM32F7xx_DFP\\2.16.0\\Drivers\\STM32F7xx_HAL_Driver\\Src\\stm32f7xx_hal.c 0x00000000   Number         0  stm32f7xx_hal.o ABSOLUTE
    C:\\Users\\X421\\AppData\\Local\\Arm\\Packs\\Keil\\STM32F7xx_DFP\\2.16.0\\Drivers\\STM32F7xx_HAL_Driver\\Src\\stm32f7xx_hal_adc.c 0x00000000   Number         0  stm32f7xx_hal_adc.o ABSOLUTE
    C:\\Users\\X421\\AppData\\Local\\Arm\\Packs\\Keil\\STM32F7xx_DFP\\2.16.0\\Drivers\\STM32F7xx_HAL_Driver\\Src\\stm32f7xx_hal_adc_ex.c 0x00000000   Number         0  stm32f7xx_hal_adc_ex.o ABSOLUTE
    C:\\Users\\X421\\AppData\\Local\\Arm\\Packs\\Keil\\STM32F7xx_DFP\\2.16.0\\Drivers\\STM32F7xx_HAL_Driver\\Src\\stm32f7xx_hal_cortex.c 0x00000000   Number         0  stm32f7xx_hal_cortex.o ABSOLUTE
    C:\\Users\\X421\\AppData\\Local\\Arm\\Packs\\Keil\\STM32F7xx_DFP\\2.16.0\\Drivers\\STM32F7xx_HAL_Driver\\Src\\stm32f7xx_hal_dma.c 0x00000000   Number         0  stm32f7xx_hal_dma.o ABSOLUTE
    C:\\Users\\X421\\AppData\\Local\\Arm\\Packs\\Keil\\STM32F7xx_DFP\\2.16.0\\Drivers\\STM32F7xx_HAL_Driver\\Src\\stm32f7xx_hal_dma_ex.c 0x00000000   Number         0  stm32f7xx_hal_dma_ex.o ABSOLUTE
    C:\\Users\\X421\\AppData\\Local\\Arm\\Packs\\Keil\\STM32F7xx_DFP\\2.16.0\\Drivers\\STM32F7xx_HAL_Driver\\Src\\stm32f7xx_hal_gpio.c 0x00000000   Number         0  stm32f7xx_hal_gpio.o ABSOLUTE
    C:\\Users\\X421\\AppData\\Local\\Arm\\Packs\\Keil\\STM32F7xx_DFP\\2.16.0\\Drivers\\STM32F7xx_HAL_Driver\\Src\\stm32f7xx_hal_pwr.c 0x00000000   Number         0  stm32f7xx_hal_pwr.o ABSOLUTE
    C:\\Users\\X421\\AppData\\Local\\Arm\\Packs\\Keil\\STM32F7xx_DFP\\2.16.0\\Drivers\\STM32F7xx_HAL_Driver\\Src\\stm32f7xx_hal_pwr_ex.c 0x00000000   Number         0  stm32f7xx_hal_pwr_ex.o ABSOLUTE
    C:\\Users\\X421\\AppData\\Local\\Arm\\Packs\\Keil\\STM32F7xx_DFP\\2.16.0\\Drivers\\STM32F7xx_HAL_Driver\\Src\\stm32f7xx_hal_rcc.c 0x00000000   Number         0  stm32f7xx_hal_rcc.o ABSOLUTE
    C:\\Users\\X421\\AppData\\Local\\Arm\\Packs\\Keil\\STM32F7xx_DFP\\2.16.0\\Drivers\\STM32F7xx_HAL_Driver\\Src\\stm32f7xx_hal_rcc_ex.c 0x00000000   Number         0  stm32f7xx_hal_rcc_ex.o ABSOLUTE
    C:\\Users\\X421\\AppData\\Local\\Arm\\Packs\\Keil\\STM32F7xx_DFP\\2.16.0\\Drivers\\STM32F7xx_HAL_Driver\\Src\\stm32f7xx_hal_sram.c 0x00000000   Number         0  stm32f7xx_hal_sram.o ABSOLUTE
    C:\\Users\\X421\\AppData\\Local\\Arm\\Packs\\Keil\\STM32F7xx_DFP\\2.16.0\\Drivers\\STM32F7xx_HAL_Driver\\Src\\stm32f7xx_ll_fmc.c 0x00000000   Number         0  stm32f7xx_ll_fmc.o ABSOLUTE
    HTTP_Server.c                            0x00000000   Number         0  http_server.o ABSOLUTE
    HTTP_Server.c                            0x00000000   Number         0  http_server.o ABSOLUTE
    HTTP_Server_CGI.c                        0x00000000   Number         0  http_server_cgi.o ABSOLUTE
    RL_ARM.s                                 0x00000000   Number         0  net_mem.o ABSOLUTE
    RL_ARM.s                                 0x00000000   Number         0  net_icmp.o ABSOLUTE
    RL_ARM.s                                 0x00000000   Number         0  net_http_server_err.o ABSOLUTE
    RL_ARM.s                                 0x00000000   Number         0  net_udp.o ABSOLUTE
    RL_ARM.s                                 0x00000000   Number         0  net_icmp6.o ABSOLUTE
    RL_ARM.s                                 0x00000000   Number         0  net_eth.o ABSOLUTE
    RL_ARM.s                                 0x00000000   Number         0  net_tcp.o ABSOLUTE
    RL_ARM.s                                 0x00000000   Number         0  net_nbns_client.o ABSOLUTE
    RL_ARM.s                                 0x00000000   Number         0  net_http_server.o ABSOLUTE
    RL_ARM.s                                 0x00000000   Number         0  net_version.o ABSOLUTE
    RL_ARM.s                                 0x00000000   Number         0  net_http_server_auth.o ABSOLUTE
    RL_ARM.s                                 0x00000000   Number         0  net_ping_core.o ABSOLUTE
    RL_ARM.s                                 0x00000000   Number         0  net_sys.o ABSOLUTE
    RL_ARM.s                                 0x00000000   Number         0  net_ip4_frag.o ABSOLUTE
    RL_ARM.s                                 0x00000000   Number         0  net_md5.o ABSOLUTE
    RL_ARM.s                                 0x00000000   Number         0  net_addr.o ABSOLUTE
    RL_ARM.s                                 0x00000000   Number         0  net_ndp.o ABSOLUTE
    RL_ARM.s                                 0x00000000   Number         0  net_ip4.o ABSOLUTE
    RL_ARM.s                                 0x00000000   Number         0  net_loopback.o ABSOLUTE
    RL_ARM.s                                 0x00000000   Number         0  net_arp.o ABSOLUTE
    RL_ARM.s                                 0x00000000   Number         0  net_common.o ABSOLUTE
    RL_ARM.s                                 0x00000000   Number         0  net_base64.o ABSOLUTE
    RL_ARM.s                                 0x00000000   Number         0  net_ip6.o ABSOLUTE
    RTE\CMSIS\RTX_Config.c                   0x00000000   Number         0  rtx_config.o ABSOLUTE
    RTE\Device\STM32F769NIHx\startup_stm32f769xx.s 0x00000000   Number         0  startup_stm32f769xx.o ABSOLUTE
    RTE\Device\STM32F769NIHx\system_stm32f7xx.c 0x00000000   Number         0  system_stm32f7xx.o ABSOLUTE
    RTE\Network\Net_Config.c                 0x00000000   Number         0  net_config.o ABSOLUTE
    RTE\Network\Net_Debug.c                  0x00000000   Number         0  net_debug.o ABSOLUTE
    RTE\\CMSIS\\RTX_Config.c                 0x00000000   Number         0  rtx_config.o ABSOLUTE
    RTE\\Device\\STM32F769NIHx\\system_stm32f7xx.c 0x00000000   Number         0  system_stm32f7xx.o ABSOLUTE
    SRC\net_addr.c                           0x00000000   Number         0  net_addr.o ABSOLUTE
    SRC\net_arp.c                            0x00000000   Number         0  net_arp.o ABSOLUTE
    SRC\net_base64.c                         0x00000000   Number         0  net_base64.o ABSOLUTE
    SRC\net_common.c                         0x00000000   Number         0  net_common.o ABSOLUTE
    SRC\net_eth.c                            0x00000000   Number         0  net_eth.o ABSOLUTE
    SRC\net_http_server.c                    0x00000000   Number         0  net_http_server.o ABSOLUTE
    SRC\net_http_server_auth.c               0x00000000   Number         0  net_http_server_auth.o ABSOLUTE
    SRC\net_http_server_err.c                0x00000000   Number         0  net_http_server_err.o ABSOLUTE
    SRC\net_icmp.c                           0x00000000   Number         0  net_icmp.o ABSOLUTE
    SRC\net_icmp6.c                          0x00000000   Number         0  net_icmp6.o ABSOLUTE
    SRC\net_ip4.c                            0x00000000   Number         0  net_ip4.o ABSOLUTE
    SRC\net_ip4_frag.c                       0x00000000   Number         0  net_ip4_frag.o ABSOLUTE
    SRC\net_ip6.c                            0x00000000   Number         0  net_ip6.o ABSOLUTE
    SRC\net_loopback.c                       0x00000000   Number         0  net_loopback.o ABSOLUTE
    SRC\net_md5.c                            0x00000000   Number         0  net_md5.o ABSOLUTE
    SRC\net_mem.c                            0x00000000   Number         0  net_mem.o ABSOLUTE
    SRC\net_nbns_client.c                    0x00000000   Number         0  net_nbns_client.o ABSOLUTE
    SRC\net_ndp.c                            0x00000000   Number         0  net_ndp.o ABSOLUTE
    SRC\net_ping_core.c                      0x00000000   Number         0  net_ping_core.o ABSOLUTE
    SRC\net_sys.c                            0x00000000   Number         0  net_sys.o ABSOLUTE
    SRC\net_tcp.c                            0x00000000   Number         0  net_tcp.o ABSOLUTE
    SRC\net_udp.c                            0x00000000   Number         0  net_udp.o ABSOLUTE
    SRC\net_version.c                        0x00000000   Number         0  net_version.o ABSOLUTE
    WebFiles\Web.c                           0x00000000   Number         0  web.o ABSOLUTE
    cdrcmple.s                               0x00000000   Number         0  cdrcmple.o ABSOLUTE
    dc.s                                     0x00000000   Number         0  dc.o ABSOLUTE
    handlers.s                               0x00000000   Number         0  handlers.o ABSOLUTE
    init.s                                   0x00000000   Number         0  init.o ABSOLUTE
    main.c                                   0x00000000   Number         0  main.o ABSOLUTE
    main.c                                   0x00000000   Number         0  main.o ABSOLUTE
    RESET                                    0x08000000   Section      504  startup_stm32f769xx.o(RESET)
    .ARM.Collect$$$$00000000                 0x080001f8   Section        0  entry.o(.ARM.Collect$$$$00000000)
    .ARM.Collect$$$$00000001                 0x080001f8   Section        4  entry2.o(.ARM.Collect$$$$00000001)
    .ARM.Collect$$$$00000004                 0x080001fc   Section        4  entry5.o(.ARM.Collect$$$$00000004)
    .ARM.Collect$$$$00000008                 0x08000200   Section        0  entry7b.o(.ARM.Collect$$$$00000008)
    .ARM.Collect$$$$0000000A                 0x08000200   Section        0  entry8b.o(.ARM.Collect$$$$0000000A)
    .ARM.Collect$$$$0000000B                 0x08000200   Section        8  entry9a.o(.ARM.Collect$$$$0000000B)
    .ARM.Collect$$$$0000000E                 0x08000208   Section        4  entry12b.o(.ARM.Collect$$$$0000000E)
    .ARM.Collect$$$$0000000F                 0x0800020c   Section        0  entry10a.o(.ARM.Collect$$$$0000000F)
    .ARM.Collect$$$$00000011                 0x0800020c   Section        0  entry11a.o(.ARM.Collect$$$$00000011)
    .ARM.Collect$$$$00002712                 0x0800020c   Section        4  entry2.o(.ARM.Collect$$$$00002712)
    __lit__00000000                          0x0800020c   Data           4  entry2.o(.ARM.Collect$$$$00002712)
    .emb_text                                0x08000210   Section      328  rtx_mempool.o(.emb_text)
    $v0                                      0x08000210   Number         0  rtx_mempool.o(.emb_text)
    .emb_text                                0x08000358   Section      328  rtx_msgqueue.o(.emb_text)
    $v0                                      0x08000358   Number         0  rtx_msgqueue.o(.emb_text)
    .emb_text                                0x080004a0   Section      328  rtx_semaphore.o(.emb_text)
    $v0                                      0x080004a0   Number         0  rtx_semaphore.o(.emb_text)
    .emb_text                                0x080005e8   Section      328  rtx_system.o(.emb_text)
    $v0                                      0x080005e8   Number         0  rtx_system.o(.emb_text)
    .emb_text                                0x08000730   Section      328  rtx_thread.o(.emb_text)
    $v0                                      0x08000730   Number         0  rtx_thread.o(.emb_text)
    .emb_text                                0x08000878   Section      132  eventrecorder.o(.emb_text)
    $v0                                      0x08000878   Number         0  eventrecorder.o(.emb_text)
    .text                                    0x080008fc   Section        0  http_server.o(.text)
    .text                                    0x08000908   Section        0  http_server_cgi.o(.text)
    .text                                    0x08000f9c   Section        0  web.o(.text)
    crc32_8bit                               0x08000f9d   Thumb Code    32  web.o(.text)
    .text                                    0x08001024   Section        0  main.o(.text)
    Error_Handler                            0x0800106d   Thumb Code     4  main.o(.text)
    SystemClock_Config                       0x08001071   Thumb Code   106  main.o(.text)
    CPU_CACHE_Enable                         0x080010db   Thumb Code   174  main.o(.text)
    MPU_Config                               0x08001189   Thumb Code    76  main.o(.text)
    .text                                    0x08001218   Section      148  irq_armv7m.o(.text)
    $v0                                      0x08001218   Number         0  irq_armv7m.o(.text)
    .text                                    0x080012ac   Section        0  rtx_delay.o(.text)
    IsIrqMasked                              0x080012ad   Thumb Code    24  rtx_delay.o(.text)
    svcRtxDelay                              0x080012c5   Thumb Code    56  rtx_delay.o(.text)
    svcRtxDelayUntil                         0x080012fd   Thumb Code    68  rtx_delay.o(.text)
    IsException                              0x080013ad   Thumb Code    16  rtx_delay.o(.text)
    .text                                    0x080013c8   Section        0  rtx_evr.o(.text)
    .text                                    0x080021a0   Section        0  rtx_kernel.o(.text)
    IsIrqMasked                              0x080021a1   Thumb Code    24  rtx_kernel.o(.text)
    KernelBlock                              0x080021b9   Thumb Code    48  rtx_kernel.o(.text)
    KernelUnblock                            0x080021e9   Thumb Code    40  rtx_kernel.o(.text)
    GetKernelSleepTime                       0x08002211   Thumb Code    28  rtx_kernel.o(.text)
    svcRtxKernelInitialize                   0x0800222d   Thumb Code   528  rtx_kernel.o(.text)
    svcRtxKernelGetInfo                      0x0800243d   Thumb Code    60  rtx_kernel.o(.text)
    svcRtxKernelGetState                     0x08002479   Thumb Code    10  rtx_kernel.o(.text)
    svcRtxKernelStart                        0x08002483   Thumb Code   196  rtx_kernel.o(.text)
    svcRtxKernelLock                         0x08002547   Thumb Code    62  rtx_kernel.o(.text)
    svcRtxKernelUnlock                       0x08002585   Thumb Code   100  rtx_kernel.o(.text)
    svcRtxKernelRestoreLock                  0x080025e9   Thumb Code    98  rtx_kernel.o(.text)
    svcRtxKernelSuspend                      0x0800264b   Thumb Code    48  rtx_kernel.o(.text)
    svcRtxKernelResume                       0x0800267b   Thumb Code   142  rtx_kernel.o(.text)
    svcRtxKernelGetTickCount                 0x08002709   Thumb Code    16  rtx_kernel.o(.text)
    svcRtxKernelGetTickFreq                  0x08002719   Thumb Code    16  rtx_kernel.o(.text)
    svcRtxKernelGetSysTimerCount             0x08002729   Thumb Code    44  rtx_kernel.o(.text)
    svcRtxKernelGetSysTimerFreq              0x08002755   Thumb Code    18  rtx_kernel.o(.text)
    __set_CONTROL                            0x08002a1f   Thumb Code    10  rtx_kernel.o(.text)
    IsPrivileged                             0x08002a29   Thumb Code    16  rtx_kernel.o(.text)
    IsException                              0x08002a39   Thumb Code    16  rtx_kernel.o(.text)
    .text                                    0x08002a50   Section        0  rtx_lib.o(.text)
    .text                                    0x08002a68   Section        0  rtx_memory.o(.text)
    MemBlockPtr                              0x08002c3d   Thumb Code    10  rtx_memory.o(.text)
    .text                                    0x08002c48   Section        0  rtx_mempool.o(.text)
    IsIrqMasked                              0x08002c49   Thumb Code    24  rtx_mempool.o(.text)
    osRtxMemoryPoolPostProcess               0x08002d2d   Thumb Code    58  rtx_mempool.o(.text)
    svcRtxMemoryPoolNew                      0x08002d67   Thumb Code   372  rtx_mempool.o(.text)
    svcRtxMemoryPoolGetName                  0x08002edb   Thumb Code    42  rtx_mempool.o(.text)
    svcRtxMemoryPoolAlloc                    0x08002f05   Thumb Code   120  rtx_mempool.o(.text)
    svcRtxMemoryPoolFree                     0x08002f7d   Thumb Code   124  rtx_mempool.o(.text)
    svcRtxMemoryPoolGetCapacity              0x08002ff9   Thumb Code    42  rtx_mempool.o(.text)
    svcRtxMemoryPoolGetBlockSize             0x08003023   Thumb Code    42  rtx_mempool.o(.text)
    svcRtxMemoryPoolGetCount                 0x0800304d   Thumb Code    42  rtx_mempool.o(.text)
    svcRtxMemoryPoolGetSpace                 0x08003077   Thumb Code    50  rtx_mempool.o(.text)
    svcRtxMemoryPoolDelete                   0x080030a9   Thumb Code   152  rtx_mempool.o(.text)
    IsException                              0x08003367   Thumb Code    16  rtx_mempool.o(.text)
    isrRtxMemoryPoolFree                     0x08003377   Thumb Code    88  rtx_mempool.o(.text)
    .text                                    0x080033ec   Section        0  rtx_msgqueue.o(.text)
    IsIrqMasked                              0x080033ed   Thumb Code    24  rtx_msgqueue.o(.text)
    MessageQueuePut                          0x08003405   Thumb Code    76  rtx_msgqueue.o(.text)
    MessageQueueGet                          0x08003451   Thumb Code    52  rtx_msgqueue.o(.text)
    MessageQueueRemove                       0x08003485   Thumb Code    34  rtx_msgqueue.o(.text)
    osRtxMessageQueuePostProcess             0x080034a7   Thumb Code   264  rtx_msgqueue.o(.text)
    svcRtxMessageQueueNew                    0x080035af   Thumb Code   382  rtx_msgqueue.o(.text)
    svcRtxMessageQueueGetName                0x0800372d   Thumb Code    42  rtx_msgqueue.o(.text)
    svcRtxMessageQueuePut                    0x08003757   Thumb Code   292  rtx_msgqueue.o(.text)
    svcRtxMessageQueueGet                    0x0800387b   Thumb Code   308  rtx_msgqueue.o(.text)
    svcRtxMessageQueueGetCapacity            0x080039af   Thumb Code    42  rtx_msgqueue.o(.text)
    svcRtxMessageQueueGetMsgSize             0x080039d9   Thumb Code    42  rtx_msgqueue.o(.text)
    svcRtxMessageQueueGetCount               0x08003a03   Thumb Code    42  rtx_msgqueue.o(.text)
    svcRtxMessageQueueGetSpace               0x08003a2d   Thumb Code    60  rtx_msgqueue.o(.text)
    svcRtxMessageQueueReset                  0x08003a69   Thumb Code   214  rtx_msgqueue.o(.text)
    svcRtxMessageQueueDelete                 0x08003b3f   Thumb Code   152  rtx_msgqueue.o(.text)
    IsException                              0x08003e2b   Thumb Code    16  rtx_msgqueue.o(.text)
    isrRtxMessageQueuePut                    0x08003e3b   Thumb Code   134  rtx_msgqueue.o(.text)
    isrRtxMessageQueueGet                    0x08003ec1   Thumb Code   130  rtx_msgqueue.o(.text)
    .text                                    0x08003f74   Section        0  rtx_mutex.o(.text)
    IsIrqMasked                              0x08003f75   Thumb Code    24  rtx_mutex.o(.text)
    svcRtxMutexNew                           0x0800404b   Thumb Code   168  rtx_mutex.o(.text)
    svcRtxMutexGetName                       0x080040f3   Thumb Code    42  rtx_mutex.o(.text)
    svcRtxMutexAcquire                       0x0800411d   Thumb Code   264  rtx_mutex.o(.text)
    svcRtxMutexRelease                       0x08004225   Thumb Code   268  rtx_mutex.o(.text)
    svcRtxMutexGetOwner                      0x08004331   Thumb Code    58  rtx_mutex.o(.text)
    svcRtxMutexDelete                        0x0800436b   Thumb Code   224  rtx_mutex.o(.text)
    IsException                              0x08004593   Thumb Code    16  rtx_mutex.o(.text)
    .text                                    0x080045b8   Section        0  rtx_semaphore.o(.text)
    IsIrqMasked                              0x080045b9   Thumb Code    24  rtx_semaphore.o(.text)
    SemaphoreTokenDecrement                  0x080045d1   Thumb Code    24  rtx_semaphore.o(.text)
    SemaphoreTokenIncrement                  0x080045e9   Thumb Code    30  rtx_semaphore.o(.text)
    osRtxSemaphorePostProcess                0x08004607   Thumb Code    50  rtx_semaphore.o(.text)
    svcRtxSemaphoreNew                       0x08004639   Thumb Code   200  rtx_semaphore.o(.text)
    svcRtxSemaphoreGetName                   0x08004701   Thumb Code    42  rtx_semaphore.o(.text)
    svcRtxSemaphoreAcquire                   0x0800472b   Thumb Code   128  rtx_semaphore.o(.text)
    svcRtxSemaphoreRelease                   0x080047ab   Thumb Code   124  rtx_semaphore.o(.text)
    svcRtxSemaphoreGetCount                  0x08004827   Thumb Code    42  rtx_semaphore.o(.text)
    svcRtxSemaphoreDelete                    0x08004851   Thumb Code   134  rtx_semaphore.o(.text)
    IsException                              0x08004a61   Thumb Code    16  rtx_semaphore.o(.text)
    isrRtxSemaphoreRelease                   0x08004a71   Thumb Code   122  rtx_semaphore.o(.text)
    .text                                    0x08004aec   Section        0  rtx_system.o(.text)
    isr_queue_put                            0x08004aed   Thumb Code    56  rtx_system.o(.text)
    isr_queue_get                            0x08004b25   Thumb Code    46  rtx_system.o(.text)
    .text                                    0x08004ca8   Section        0  rtx_thread.o(.text)
    IsIrqMasked                              0x08004ca9   Thumb Code    24  rtx_thread.o(.text)
    ThreadFlagsSet                           0x08004cc1   Thumb Code    22  rtx_thread.o(.text)
    ThreadFlagsClear                         0x08004cd7   Thumb Code    22  rtx_thread.o(.text)
    ThreadFlagsCheck                         0x08004ced   Thumb Code    86  rtx_thread.o(.text)
    osRtxThreadListRoot                      0x08004d89   Thumb Code    16  rtx_thread.o(.text)
    osRtxThreadListUnlink                    0x08004ddd   Thumb Code    32  rtx_thread.o(.text)
    osRtxThreadDelayInsert                   0x08004e0f   Thumb Code   106  rtx_thread.o(.text)
    osRtxThreadDelayRemove                   0x08004e79   Thumb Code    94  rtx_thread.o(.text)
    osRtxThreadBlock                         0x0800501d   Thumb Code    58  rtx_thread.o(.text)
    osRtxThreadPostProcess                   0x0800516f   Thumb Code    52  rtx_thread.o(.text)
    osRtxThreadFree                          0x080051a3   Thumb Code   112  rtx_thread.o(.text)
    osRtxThreadDestroy                       0x08005213   Thumb Code    58  rtx_thread.o(.text)
    osRtxThreadJoinWakeup                    0x0800524d   Thumb Code    38  rtx_thread.o(.text)
    svcRtxThreadExit                         0x08005273   Thumb Code    98  rtx_thread.o(.text)
    svcRtxThreadNew                          0x080052f1   Thumb Code   620  rtx_thread.o(.text)
    svcRtxThreadGetName                      0x0800555d   Thumb Code    42  rtx_thread.o(.text)
    svcRtxThreadGetId                        0x08005587   Thumb Code    18  rtx_thread.o(.text)
    svcRtxThreadGetState                     0x08005599   Thumb Code    58  rtx_thread.o(.text)
    svcRtxThreadGetStackSize                 0x080055d3   Thumb Code    62  rtx_thread.o(.text)
    svcRtxThreadGetStackSpace                0x08005611   Thumb Code   104  rtx_thread.o(.text)
    svcRtxThreadSetPriority                  0x08005679   Thumb Code   110  rtx_thread.o(.text)
    svcRtxThreadGetPriority                  0x080056e7   Thumb Code    74  rtx_thread.o(.text)
    svcRtxThreadYield                        0x08005731   Thumb Code    62  rtx_thread.o(.text)
    svcRtxThreadSuspend                      0x0800576f   Thumb Code   184  rtx_thread.o(.text)
    svcRtxThreadResume                       0x08005827   Thumb Code    88  rtx_thread.o(.text)
    svcRtxThreadDetach                       0x0800587f   Thumb Code   100  rtx_thread.o(.text)
    svcRtxThreadJoin                         0x080058e3   Thumb Code   170  rtx_thread.o(.text)
    svcRtxThreadTerminate                    0x0800598d   Thumb Code   244  rtx_thread.o(.text)
    svcRtxThreadGetCount                     0x08005a81   Thumb Code    62  rtx_thread.o(.text)
    svcRtxThreadEnumerate                    0x08005abf   Thumb Code   120  rtx_thread.o(.text)
    svcRtxThreadFlagsSet                     0x08005b37   Thumb Code   154  rtx_thread.o(.text)
    svcRtxThreadFlagsClear                   0x08005bd1   Thumb Code    70  rtx_thread.o(.text)
    svcRtxThreadFlagsGet                     0x08005c17   Thumb Code    30  rtx_thread.o(.text)
    svcRtxThreadFlagsWait                    0x08005c35   Thumb Code   146  rtx_thread.o(.text)
    IsException                              0x0800615b   Thumb Code    16  rtx_thread.o(.text)
    osRtxKernelGetState                      0x0800616b   Thumb Code     6  rtx_thread.o(.text)
    osRtxThreadGetRunning                    0x08006171   Thumb Code     6  rtx_thread.o(.text)
    osRtxThreadSetRunning                    0x08006177   Thumb Code     6  rtx_thread.o(.text)
    isrRtxThreadFlagsSet                     0x0800617d   Thumb Code   100  rtx_thread.o(.text)
    .text                                    0x08006220   Section        0  rtx_timer.o(.text)
    IsIrqMasked                              0x08006221   Thumb Code    24  rtx_timer.o(.text)
    TimerInsert                              0x08006239   Thumb Code    58  rtx_timer.o(.text)
    TimerRemove                              0x08006273   Thumb Code    42  rtx_timer.o(.text)
    TimerUnlink                              0x0800629d   Thumb Code    18  rtx_timer.o(.text)
    osRtxTimerTick                           0x080062af   Thumb Code   138  rtx_timer.o(.text)
    svcRtxTimerNew                           0x0800637d   Thumb Code   206  rtx_timer.o(.text)
    svcRtxTimerGetName                       0x0800644b   Thumb Code    42  rtx_timer.o(.text)
    svcRtxTimerStart                         0x08006475   Thumb Code    98  rtx_timer.o(.text)
    svcRtxTimerStop                          0x080064d7   Thumb Code    76  rtx_timer.o(.text)
    svcRtxTimerIsRunning                     0x08006523   Thumb Code    62  rtx_timer.o(.text)
    svcRtxTimerDelete                        0x08006561   Thumb Code   104  rtx_timer.o(.text)
    IsException                              0x0800672b   Thumb Code    16  rtx_timer.o(.text)
    osRtxThreadSetRunning                    0x0800673b   Thumb Code     6  rtx_timer.o(.text)
    .text                                    0x08006758   Section        0  os_systick.o(.text)
    .text                                    0x08006834   Section        0  rtx_config.o(.text)
    .text                                    0x08006858   Section        0  phy_lan8742a.o(.text)
    GetVersion                               0x08006859   Thumb Code    10  phy_lan8742a.o(.text)
    Initialize                               0x08006863   Thumb Code    42  phy_lan8742a.o(.text)
    Uninitialize                             0x0800688d   Thumb Code    14  phy_lan8742a.o(.text)
    PowerControl                             0x0800689b   Thumb Code   206  phy_lan8742a.o(.text)
    SetInterface                             0x08006969   Thumb Code    40  phy_lan8742a.o(.text)
    SetMode                                  0x08006991   Thumb Code   124  phy_lan8742a.o(.text)
    GetLinkState                             0x08006a0d   Thumb Code    40  phy_lan8742a.o(.text)
    GetLinkInfo                              0x08006a35   Thumb Code    64  phy_lan8742a.o(.text)
    .text                                    0x08006a7c   Section        0  emac_stm32f7xx.o(.text)
    Enable_GPIO_Clock                        0x08006a7d   Thumb Code   378  emac_stm32f7xx.o(.text)
    init_rx_desc                             0x08006bf7   Thumb Code   150  emac_stm32f7xx.o(.text)
    init_tx_desc                             0x08006c8d   Thumb Code   142  emac_stm32f7xx.o(.text)
    init_dma                                 0x08006d1b   Thumb Code    58  emac_stm32f7xx.o(.text)
    crc32_8bit_rev                           0x08006d55   Thumb Code    34  emac_stm32f7xx.o(.text)
    crc32_data                               0x08006d77   Thumb Code    40  emac_stm32f7xx.o(.text)
    GetVersion                               0x08006d9f   Thumb Code    10  emac_stm32f7xx.o(.text)
    GetCapabilities                          0x08006da9   Thumb Code     6  emac_stm32f7xx.o(.text)
    Initialize                               0x08006daf   Thumb Code   106  emac_stm32f7xx.o(.text)
    Uninitialize                             0x08006e19   Thumb Code    40  emac_stm32f7xx.o(.text)
    PowerControl                             0x08006e41   Thumb Code   712  emac_stm32f7xx.o(.text)
    GetMacAddress                            0x08007109   Thumb Code    58  emac_stm32f7xx.o(.text)
    SetMacAddress                            0x08007143   Thumb Code    66  emac_stm32f7xx.o(.text)
    SetAddressFilter                         0x08007185   Thumb Code   364  emac_stm32f7xx.o(.text)
    SendFrame                                0x080072f1   Thumb Code   580  emac_stm32f7xx.o(.text)
    ReadFrame                                0x08007535   Thumb Code   304  emac_stm32f7xx.o(.text)
    GetRxFrameSize                           0x08007665   Thumb Code   174  emac_stm32f7xx.o(.text)
    GetRxFrameTime                           0x08007713   Thumb Code     8  emac_stm32f7xx.o(.text)
    GetTxFrameTime                           0x0800771b   Thumb Code     8  emac_stm32f7xx.o(.text)
    ControlTimer                             0x08007723   Thumb Code     8  emac_stm32f7xx.o(.text)
    Control                                  0x0800772b   Thumb Code   358  emac_stm32f7xx.o(.text)
    PHY_Read                                 0x08007891   Thumb Code   110  emac_stm32f7xx.o(.text)
    PHY_Write                                0x080078ff   Thumb Code   106  emac_stm32f7xx.o(.text)
    .text                                    0x080079c0   Section        0  eventrecorder.o(.text)
    EventRecordItem                          0x080079c1   Thumb Code   206  eventrecorder.o(.text)
    EventGetTS                               0x08007a95   Thumb Code    84  eventrecorder.o(.text)
    EventCheckFilter                         0x08007ae9   Thumb Code    34  eventrecorder.o(.text)
    crc16_ccitt                              0x08007b0b   Thumb Code    66  eventrecorder.o(.text)
    GetContext                               0x08007fcb   Thumb Code    10  eventrecorder.o(.text)
    .text                                    0x08007fd8   Section        0  stm32f7xx_hal.o(.text)
    .text                                    0x08008228   Section        0  stm32f7xx_hal_cortex.o(.text)
    __NVIC_SetPriority                       0x08008229   Thumb Code    32  stm32f7xx_hal_cortex.o(.text)
    __NVIC_GetPriorityGrouping               0x0800858d   Thumb Code    12  stm32f7xx_hal_cortex.o(.text)
    .text                                    0x080085ac   Section        0  stm32f7xx_hal_gpio.o(.text)
    .text                                    0x0800898c   Section        0  stm32f7xx_hal_pwr_ex.o(.text)
    .text                                    0x08008d0c   Section        0  stm32f7xx_hal_rcc.o(.text)
    .text                                    0x08009858   Section       36  startup_stm32f769xx.o(.text)
    $v0                                      0x08009858   Number         0  startup_stm32f769xx.o(.text)
    .text                                    0x0800987c   Section        0  system_stm32f7xx.o(.text)
    .text                                    0x0800994c   Section        0  net_config.o(.text)
    ms2tick                                  0x0800994d   Thumb Code    44  net_config.o(.text)
    eth0_callback                            0x08009a6b   Thumb Code     6  net_config.o(.text)
    .text                                    0x08009ac4   Section        0  net_debug.o(.text)
    .text                                    0x08009c14   Section        0  uldiv.o(.text)
    .text                                    0x08009c76   Section        0  memcpya.o(.text)
    .text                                    0x08009c9a   Section        0  memseta.o(.text)
    .text                                    0x08009cbe   Section        0  strlen.o(.text)
    .text                                    0x08009ccc   Section        0  strcmp.o(.text)
    .text                                    0x08009ce8   Section        0  memcmp.o(.text)
    .text                                    0x08009d02   Section        0  strncmp.o(.text)
    .text                                    0x08009d20   Section        0  __0sscanf.o(.text)
    .text                                    0x08009d58   Section        0  _scanf_int.o(.text)
    .text                                    0x08009ea4   Section        0  llshl.o(.text)
    .text                                    0x08009ec2   Section        0  llushr.o(.text)
    .text                                    0x08009ee2   Section        0  _chval.o(.text)
    .text                                    0x08009f00   Section        0  scanf_char.o(.text)
    _scanf_char_input                        0x08009f01   Thumb Code    12  scanf_char.o(.text)
    .text                                    0x08009f28   Section        0  _sgetc.o(.text)
    .text                                    0x08009f68   Section       36  init.o(.text)
    .text                                    0x08009f8c   Section        0  isspace_c.o(.text)
    .text                                    0x08009f98   Section        0  _scanf.o(.text)
    .text                                    0x0800a2c8   Section        0  ctype_c.o(.text)
    .text                                    0x0800a2f0   Section        0  __dczerorl2.o(.text)
    i.__0sprintf$8                           0x0800a348   Section        0  printf8.o(i.__0sprintf$8)
    i.__scatterload_copy                     0x0800a370   Section       14  handlers.o(i.__scatterload_copy)
    i.__scatterload_null                     0x0800a37e   Section        2  handlers.o(i.__scatterload_null)
    i.__scatterload_zeroinit                 0x0800a380   Section       14  handlers.o(i.__scatterload_zeroinit)
    i._printf_core                           0x0800a390   Section        0  printf8.o(i._printf_core)
    _printf_core                             0x0800a391   Thumb Code   984  printf8.o(i._printf_core)
    i._printf_post_padding                   0x0800a794   Section        0  printf8.o(i._printf_post_padding)
    _printf_post_padding                     0x0800a795   Thumb Code    36  printf8.o(i._printf_post_padding)
    i._printf_pre_padding                    0x0800a7b8   Section        0  printf8.o(i._printf_pre_padding)
    _printf_pre_padding                      0x0800a7b9   Thumb Code    46  printf8.o(i._printf_pre_padding)
    i._sputc                                 0x0800a7e6   Section        0  printf8.o(i._sputc)
    _sputc                                   0x0800a7e7   Thumb Code    10  printf8.o(i._sputc)
    i.add_server_id                          0x0800a7f0   Section        0  net_http_server.o(i.add_server_id)
    add_server_id                            0x0800a7f1   Thumb Code    46  net_http_server.o(i.add_server_id)
    i.arp_cache_alloc                        0x0800a844   Section        0  net_arp.o(i.arp_cache_alloc)
    arp_cache_alloc                          0x0800a845   Thumb Code    92  net_arp.o(i.arp_cache_alloc)
    i.arp_cache_run                          0x0800a8a0   Section        0  net_arp.o(i.arp_cache_run)
    arp_cache_run                            0x0800a8a1   Thumb Code   354  net_arp.o(i.arp_cache_run)
    i.arp_is_cacheable                       0x0800aa10   Section        0  net_arp.o(i.arp_is_cacheable)
    arp_is_cacheable                         0x0800aa11   Thumb Code    56  net_arp.o(i.arp_is_cacheable)
    i.arp_probe_run                          0x0800aa48   Section        0  net_arp.o(i.arp_probe_run)
    arp_probe_run                            0x0800aa49   Thumb Code   128  net_arp.o(i.arp_probe_run)
    i.arp_proc_response                      0x0800aad0   Section        0  net_arp.o(i.arp_proc_response)
    arp_proc_response                        0x0800aad1   Thumb Code   210  net_arp.o(i.arp_proc_response)
    i.arp_que_free                           0x0800aba8   Section        0  net_arp.o(i.arp_que_free)
    arp_que_free                             0x0800aba9   Thumb Code    26  net_arp.o(i.arp_que_free)
    i.arp_send_reply                         0x0800abc4   Section        0  net_arp.o(i.arp_send_reply)
    arp_send_reply                           0x0800abc5   Thumb Code   150  net_arp.o(i.arp_send_reply)
    i.arp_send_request                       0x0800ac64   Section        0  net_arp.o(i.arp_send_request)
    arp_send_request                         0x0800ac65   Thumb Code   192  net_arp.o(i.arp_send_request)
    i.arp_sender_valid                       0x0800ad34   Section        0  net_arp.o(i.arp_sender_valid)
    arp_sender_valid                         0x0800ad35   Thumb Code    90  net_arp.o(i.arp_sender_valid)
    i.chk_post_req                           0x0800ad9c   Section        0  net_http_server.o(i.chk_post_req)
    chk_post_req                             0x0800ad9d   Thumb Code   284  net_http_server.o(i.chk_post_req)
    i.crc32_8bit                             0x0800af28   Section        0  net_common.o(i.crc32_8bit)
    crc32_8bit                               0x0800af29   Thumb Code    34  net_common.o(i.crc32_8bit)
    i.eth_check_link                         0x0800af50   Section        0  net_eth.o(i.eth_check_link)
    eth_check_link                           0x0800af51   Thumb Code   154  net_eth.o(i.eth_check_link)
    i.eth_if_map                             0x0800afec   Section        0  net_eth.o(i.eth_if_map)
    eth_if_map                               0x0800afed   Thumb Code    26  net_eth.o(i.eth_if_map)
    i.eth_iface_init                         0x0800b00c   Section        0  net_eth.o(i.eth_iface_init)
    eth_iface_init                           0x0800b00d   Thumb Code   758  net_eth.o(i.eth_iface_init)
    i.eth_iface_run                          0x0800b310   Section        0  net_eth.o(i.eth_iface_run)
    eth_iface_run                            0x0800b311   Thumb Code   634  net_eth.o(i.eth_iface_run)
    i.eth_iface_uninit                       0x0800b5a0   Section        0  net_eth.o(i.eth_iface_uninit)
    eth_iface_uninit                         0x0800b5a1   Thumb Code   118  net_eth.o(i.eth_iface_uninit)
    i.eth_lock                               0x0800b61c   Section        0  net_eth.o(i.eth_lock)
    eth_lock                                 0x0800b61d   Thumb Code     8  net_eth.o(i.eth_lock)
    i.eth_mtu_limit                          0x0800b624   Section        0  net_eth.o(i.eth_mtu_limit)
    eth_mtu_limit                            0x0800b625   Thumb Code    28  net_eth.o(i.eth_mtu_limit)
    i.eth_opt_len                            0x0800b640   Section        0  net_eth.o(i.eth_opt_len)
    eth_opt_len                              0x0800b641   Thumb Code    72  net_eth.o(i.eth_opt_len)
    i.eth_receive                            0x0800b688   Section        0  net_eth.o(i.eth_receive)
    eth_receive                              0x0800b689   Thumb Code   136  net_eth.o(i.eth_receive)
    i.eth_unlock                             0x0800b710   Section        0  net_eth.o(i.eth_unlock)
    eth_unlock                               0x0800b711   Thumb Code     8  net_eth.o(i.eth_unlock)
    i.frag_map_session                       0x0800b718   Section        0  net_ip4_frag.o(i.frag_map_session)
    frag_map_session                         0x0800b719   Thumb Code   120  net_ip4_frag.o(i.frag_map_session)
    i.get_next_field                         0x0800b794   Section        0  net_http_server.o(i.get_next_field)
    get_next_field                           0x0800b795   Thumb Code    40  net_http_server.o(i.get_next_field)
    i.get_next_par                           0x0800b7bc   Section        0  net_http_server.o(i.get_next_par)
    get_next_par                             0x0800b7bd   Thumb Code    50  net_http_server.o(i.get_next_par)
    i.hex2byte                               0x0800b7ee   Section        0  net_http_server.o(i.hex2byte)
    hex2byte                                 0x0800b7ef   Thumb Code    34  net_http_server.o(i.hex2byte)
    i.http_add_header                        0x0800b810   Section        0  net_http_server.o(i.http_add_header)
    http_add_header                          0x0800b811   Thumb Code   354  net_http_server.o(i.http_add_header)
    i.http_auth_basic_add                    0x0800bb7c   Section        0  net_http_server_auth.o(i.http_auth_basic_add)
    http_auth_basic_add                      0x0800bb7d   Thumb Code    38  net_http_server_auth.o(i.http_auth_basic_add)
    i.http_auth_basic_parse                  0x0800bbcc   Section        0  net_http_server_auth.o(i.http_auth_basic_parse)
    http_auth_basic_parse                    0x0800bbcd   Thumb Code   128  net_http_server_auth.o(i.http_auth_basic_parse)
    i.http_auth_dummy                        0x0800bc5c   Section        0  net_http_server_auth.o(i.http_auth_dummy)
    http_auth_dummy                          0x0800bc5d   Thumb Code     2  net_http_server_auth.o(i.http_auth_dummy)
    i.http_auth_init                         0x0800bc60   Section        0  net_http_server_auth.o(i.http_auth_init)
    http_auth_init                           0x0800bc61   Thumb Code    28  net_http_server_auth.o(i.http_auth_init)
    i.http_error_msg                         0x0800bc84   Section        0  net_http_server.o(i.http_error_msg)
    http_error_msg                           0x0800bc85   Thumb Code   256  net_http_server.o(i.http_error_msg)
    i.http_get_ftype                         0x0800be50   Section        0  net_http_server.o(i.http_get_ftype)
    http_get_ftype                           0x0800be51   Thumb Code   106  net_http_server.o(i.http_get_ftype)
    i.http_kill_session                      0x0800bec8   Section        0  net_http_server.o(i.http_kill_session)
    http_kill_session                        0x0800bec9   Thumb Code    94  net_http_server.o(i.http_kill_session)
    i.http_listener                          0x0800bf28   Section        0  net_http_server.o(i.http_listener)
    http_listener                            0x0800bf29   Thumb Code   642  net_http_server.o(i.http_listener)
    i.http_open_file                         0x0800c1d0   Section        0  net_http_server.o(i.http_open_file)
    http_open_file                           0x0800c1d1   Thumb Code   352  net_http_server.o(i.http_open_file)
    i.http_parse_header                      0x0800c354   Section        0  net_http_server.o(i.http_parse_header)
    http_parse_header                        0x0800c355   Thumb Code   212  net_http_server.o(i.http_parse_header)
    i.http_proc_multipart                    0x0800c470   Section        0  net_http_server.o(i.http_proc_multipart)
    http_proc_multipart                      0x0800c471   Thumb Code   378  net_http_server.o(i.http_proc_multipart)
    i.http_proc_post                         0x0800c618   Section        0  net_http_server.o(i.http_proc_post)
    http_proc_post                           0x0800c619   Thumb Code   298  net_http_server.o(i.http_proc_post)
    i.http_server_run                        0x0800c750   Section        0  net_http_server.o(i.http_server_run)
    http_server_run                          0x0800c751   Thumb Code  1124  net_http_server.o(i.http_server_run)
    i.http_server_start                      0x0800cbb8   Section        0  net_http_server.o(i.http_server_start)
    http_server_start                        0x0800cbb9   Thumb Code    82  net_http_server.o(i.http_server_start)
    i.http_strcpy                            0x0800cc18   Section        0  net_http_server.o(i.http_strcpy)
    http_strcpy                              0x0800cc19   Thumb Code    32  net_http_server.o(i.http_strcpy)
    i.http_to_utc                            0x0800cc38   Section        0  net_http_server.o(i.http_to_utc)
    http_to_utc                              0x0800cc39   Thumb Code   168  net_http_server.o(i.http_to_utc)
    i.i2str                                  0x0800cce4   Section        0  net_common.o(i.i2str)
    i2str                                    0x0800cce5   Thumb Code    26  net_common.o(i.i2str)
    i.ip4_get_chksum                         0x0800ccfe   Section        0  net_ip4.o(i.ip4_get_chksum)
    ip4_get_chksum                           0x0800ccff   Thumb Code    12  net_ip4.o(i.ip4_get_chksum)
    i.ip4_get_mtu                            0x0800cd0a   Section        0  net_ip4.o(i.ip4_get_mtu)
    ip4_get_mtu                              0x0800cd0b   Thumb Code    40  net_ip4.o(i.ip4_get_mtu)
    i.mem_lock                               0x0800cd34   Section        0  net_mem.o(i.mem_lock)
    mem_lock                                 0x0800cd35   Thumb Code     8  net_mem.o(i.mem_lock)
    i.mem_unlock                             0x0800cd40   Section        0  net_mem.o(i.mem_unlock)
    mem_unlock                               0x0800cd41   Thumb Code     8  net_mem.o(i.mem_unlock)
    i.nbns_listener                          0x0800cd4c   Section        0  net_nbns_client.o(i.nbns_listener)
    nbns_listener                            0x0800cd4d   Thumb Code   394  net_nbns_client.o(i.nbns_listener)
    i.ndp_cache_add                          0x0800cef0   Section        0  net_ndp.o(i.ndp_cache_add)
    ndp_cache_add                            0x0800cef1   Thumb Code   278  net_ndp.o(i.ndp_cache_add)
    i.ndp_cache_alloc                        0x0800d010   Section        0  net_ndp.o(i.ndp_cache_alloc)
    ndp_cache_alloc                          0x0800d011   Thumb Code   114  net_ndp.o(i.ndp_cache_alloc)
    i.ndp_cache_delete                       0x0800d084   Section        0  net_ndp.o(i.ndp_cache_delete)
    ndp_cache_delete                         0x0800d085   Thumb Code   110  net_ndp.o(i.ndp_cache_delete)
    i.ndp_check_frame                        0x0800d0fc   Section        0  net_ndp.o(i.ndp_check_frame)
    ndp_check_frame                          0x0800d0fd   Thumb Code    44  net_ndp.o(i.ndp_check_frame)
    i.ndp_next_opt                           0x0800d128   Section        0  net_ndp.o(i.ndp_next_opt)
    ndp_next_opt                             0x0800d129   Thumb Code    18  net_ndp.o(i.ndp_next_opt)
    i.ndp_prefix_add                         0x0800d13c   Section        0  net_ndp.o(i.ndp_prefix_add)
    ndp_prefix_add                           0x0800d13d   Thumb Code   220  net_ndp.o(i.ndp_prefix_add)
    i.ndp_proc_response                      0x0800d220   Section        0  net_ndp.o(i.ndp_proc_response)
    ndp_proc_response                        0x0800d221   Thumb Code   242  net_ndp.o(i.ndp_proc_response)
    i.ndp_que_free                           0x0800d31c   Section        0  net_ndp.o(i.ndp_que_free)
    ndp_que_free                             0x0800d31d   Thumb Code    26  net_ndp.o(i.ndp_que_free)
    i.ndp_router_remove                      0x0800d338   Section        0  net_ndp.o(i.ndp_router_remove)
    ndp_router_remove                        0x0800d339   Thumb Code    52  net_ndp.o(i.ndp_router_remove)
    i.ndp_send_reply                         0x0800d370   Section        0  net_ndp.o(i.ndp_send_reply)
    ndp_send_reply                           0x0800d371   Thumb Code   144  net_ndp.o(i.ndp_send_reply)
    i.ndp_send_request                       0x0800d40c   Section        0  net_ndp.o(i.ndp_send_request)
    ndp_send_request                         0x0800d40d   Thumb Code   174  net_ndp.o(i.ndp_send_request)
    i.netCGI_Charset                         0x0800d4c8   Section        0  net_http_server.o(i.netCGI_Charset)
    i.netCGI_ContentType                     0x0800d4cc   Section        0  net_http_server.o(i.netCGI_ContentType)
    i.netCGI_CustomHeader                    0x0800d4d0   Section        0  net_http_server.o(i.netCGI_CustomHeader)
    i.netCGI_GetEnvVar                       0x0800d4d4   Section        0  net_http_server.o(i.netCGI_GetEnvVar)
    i.netCGI_Redirect                        0x0800d540   Section        0  net_http_server.o(i.netCGI_Redirect)
    i.netCGX_ContentType                     0x0800d544   Section        0  net_http_server.o(i.netCGX_ContentType)
    i.netCore_Thread                         0x0800d548   Section        0  net_sys.o(i.netCore_Thread)
    i.netETH_Notify                          0x0800d5ac   Section        0  net_eth.o(i.netETH_Notify)
    i.netETH_ReceiveRaw                      0x0800d5ae   Section        0  net_eth.o(i.netETH_ReceiveRaw)
    i.netETH_Thread                          0x0800d5b0   Section        0  net_eth.o(i.netETH_Thread)
    i.netHTTPs_AcceptClient                  0x0800d622   Section        0  net_http_server.o(i.netHTTPs_AcceptClient)
    i.netHTTPs_CheckAccount                  0x0800d626   Section        0  net_http_server_auth.o(i.netHTTPs_CheckAccount)
    i.netHTTPs_FileAccess                    0x0800d62a   Section        0  net_http_server.o(i.netHTTPs_FileAccess)
    i.netIF_SetOption                        0x0800d630   Section        0  net_sys.o(i.netIF_SetOption)
    i.netIP_aton                             0x0800d6b4   Section        0  net_addr.o(i.netIP_aton)
    i.netInitialize                          0x0800d6d0   Section        0  net_sys.o(i.netInitialize)
    i.netMAC_aton                            0x0800d77c   Section        0  net_addr.o(i.netMAC_aton)
    i.net_addr4_aton                         0x0800d808   Section        0  net_addr.o(i.net_addr4_aton)
    i.net_addr4_to_mac                       0x0800d884   Section        0  net_addr.o(i.net_addr4_to_mac)
    i.net_addr6_aton                         0x0800d8a4   Section        0  net_addr.o(i.net_addr6_aton)
    i.net_addr6_comp                         0x0800d98a   Section        0  net_addr.o(i.net_addr6_comp)
    i.net_addr6_copy                         0x0800d9b2   Section        0  net_addr.o(i.net_addr6_copy)
    i.net_addr6_create                       0x0800d9c4   Section        0  net_addr.o(i.net_addr6_create)
    i.net_addr6_get_solicited                0x0800da10   Section        0  net_addr.o(i.net_addr6_get_solicited)
    i.net_addr6_is_linklocal                 0x0800da38   Section        0  net_addr.o(i.net_addr6_is_linklocal)
    i.net_addr6_is_onlink                    0x0800da50   Section        0  net_addr.o(i.net_addr6_is_onlink)
    i.net_addr6_is_solicited                 0x0800dabe   Section        0  net_addr.o(i.net_addr6_is_solicited)
    i.net_addr6_is_unspec                    0x0800db06   Section        0  net_addr.o(i.net_addr6_is_unspec)
    i.net_addr6_to_mac                       0x0800db1e   Section        0  net_addr.o(i.net_addr6_to_mac)
    i.net_addr_find_route                    0x0800db2c   Section        0  net_addr.o(i.net_addr_find_route)
    i.net_addr_get_local                     0x0800db48   Section        0  net_addr.o(i.net_addr_get_local)
    i.net_addr_is_unspec                     0x0800db68   Section        0  net_addr.o(i.net_addr_is_unspec)
    i.net_arp_cache_add                      0x0800db8c   Section        0  net_arp.o(i.net_arp_cache_add)
    i.net_arp_cache_early                    0x0800dca8   Section        0  net_arp.o(i.net_arp_cache_early)
    i.net_arp_cache_find                     0x0800dd64   Section        0  net_arp.o(i.net_arp_cache_find)
    i.net_arp_cache_init                     0x0800de50   Section        0  net_arp.o(i.net_arp_cache_init)
    i.net_arp_cache_run                      0x0800de98   Section        0  net_arp.o(i.net_arp_cache_run)
    i.net_arp_cache_uninit                   0x0800deb4   Section        0  net_arp.o(i.net_arp_cache_uninit)
    i.net_arp_enqueue                        0x0800def4   Section        0  net_arp.o(i.net_arp_enqueue)
    i.net_arp_notify                         0x0800df6c   Section        0  net_arp.o(i.net_arp_notify)
    i.net_arp_process                        0x0800df8c   Section        0  net_arp.o(i.net_arp_process)
    i.net_atoi                               0x0800e1b0   Section        0  net_common.o(i.net_atoi)
    i.net_base64_decode                      0x0800e1f4   Section        0  net_base64.o(i.net_base64_decode)
    i.net_chksum_buf                         0x0800e26c   Section        0  net_common.o(i.net_chksum_buf)
    i.net_crc_buf                            0x0800e29c   Section        0  net_common.o(i.net_crc_buf)
    i.net_eth_callback                       0x0800e2ba   Section        0  net_eth.o(i.net_eth_callback)
    i.net_eth_config_mcast                   0x0800e2c8   Section        0  net_eth.o(i.net_eth_config_mcast)
    i.net_eth_get_option                     0x0800e330   Section        0  net_eth.o(i.net_eth_get_option)
    i.net_eth_iface_init                     0x0800e41c   Section        0  net_eth.o(i.net_eth_iface_init)
    i.net_eth_iface_run                      0x0800e438   Section        0  net_eth.o(i.net_eth_iface_run)
    i.net_eth_iface_uninit                   0x0800e454   Section        0  net_eth.o(i.net_eth_iface_uninit)
    i.net_eth_output                         0x0800e470   Section        0  net_eth.o(i.net_eth_output)
    i.net_eth_send_frame                     0x0800e518   Section        0  net_eth.o(i.net_eth_send_frame)
    i.net_eth_set_option                     0x0800e6f8   Section        0  net_eth.o(i.net_eth_set_option)
    i.net_http_server_init                   0x0800e968   Section        0  net_http_server.o(i.net_http_server_init)
    i.net_http_server_run                    0x0800ea50   Section        0  net_http_server.o(i.net_http_server_run)
    i.net_http_server_uninit                 0x0800ea78   Section        0  net_http_server.o(i.net_http_server_uninit)
    i.net_icmp6_init                         0x0800eae8   Section        0  net_icmp6.o(i.net_icmp6_init)
    i.net_icmp6_process                      0x0800eb00   Section        0  net_icmp6.o(i.net_icmp6_process)
    i.net_icmp6_send                         0x0800ed38   Section        0  net_icmp6.o(i.net_icmp6_send)
    i.net_icmp6_send_echo                    0x0800edbc   Section        0  net_icmp6.o(i.net_icmp6_send_echo)
    i.net_icmp_init                          0x0800ee14   Section        0  net_icmp.o(i.net_icmp_init)
    i.net_icmp_process                       0x0800ee2c   Section        0  net_icmp.o(i.net_icmp_process)
    i.net_icmp_send_echo                     0x0800eff4   Section        0  net_icmp.o(i.net_icmp_send_echo)
    i.net_if_map_all                         0x0800f094   Section        0  net_sys.o(i.net_if_map_all)
    i.net_ip4_chk_frame                      0x0800f0a0   Section        0  net_ip4.o(i.net_ip4_chk_frame)
    i.net_ip4_chksum                         0x0800f22c   Section        0  net_ip4.o(i.net_ip4_chksum)
    i.net_ip4_chksum_buf                     0x0800f258   Section        0  net_ip4.o(i.net_ip4_chksum_buf)
    i.net_ip4_find_route                     0x0800f260   Section        0  net_ip4.o(i.net_ip4_find_route)
    i.net_ip4_frag_add                       0x0800f2e0   Section        0  net_ip4_frag.o(i.net_ip4_frag_add)
    i.net_ip4_frag_get                       0x0800f404   Section        0  net_ip4_frag.o(i.net_ip4_frag_get)
    i.net_ip4_frag_init                      0x0800f4b0   Section        0  net_ip4_frag.o(i.net_ip4_frag_init)
    i.net_ip4_frag_run                       0x0800f4c0   Section        0  net_ip4_frag.o(i.net_ip4_frag_run)
    i.net_ip4_frag_uninit                    0x0800f4fc   Section        0  net_ip4_frag.o(i.net_ip4_frag_uninit)
    i.net_ip4_get_local                      0x0800f50c   Section        0  net_ip4.o(i.net_ip4_get_local)
    i.net_ip4_init                           0x0800f538   Section        0  net_ip4.o(i.net_ip4_init)
    i.net_ip4_is_onlink                      0x0800f55c   Section        0  net_ip4.o(i.net_ip4_is_onlink)
    i.net_ip4_is_subcast                     0x0800f57c   Section        0  net_ip4.o(i.net_ip4_is_subcast)
    i.net_ip4_reass_frame                    0x0800f5a2   Section        0  net_ip4.o(i.net_ip4_reass_frame)
    i.net_ip4_send_frame                     0x0800f5b0   Section        0  net_ip4.o(i.net_ip4_send_frame)
    i.net_ip4_tx_offl_hl                     0x0800f714   Section        0  net_ip4.o(i.net_ip4_tx_offl_hl)
    i.net_ip4_uninit                         0x0800f740   Section        0  net_ip4.o(i.net_ip4_uninit)
    i.net_ip6_chk_frame                      0x0800f760   Section        0  net_ip6.o(i.net_ip6_chk_frame)
    i.net_ip6_chksum                         0x0800f860   Section        0  net_ip6.o(i.net_ip6_chksum)
    i.net_ip6_collect_mcast                  0x0800f894   Section        0  net_ip6.o(i.net_ip6_collect_mcast)
    i.net_ip6_find_route                     0x0800f910   Section        0  net_ip6.o(i.net_ip6_find_route)
    i.net_ip6_get_local                      0x0800f958   Section        0  net_ip6.o(i.net_ip6_get_local)
    i.net_ip6_init                           0x0800f9ac   Section        0  net_ip6.o(i.net_ip6_init)
    i.net_ip6_send_frame                     0x0800f9c8   Section        0  net_ip6.o(i.net_ip6_send_frame)
    i.net_ip6_tx_offl_hl                     0x0800fa94   Section        0  net_ip6.o(i.net_ip6_tx_offl_hl)
    i.net_ip6_uninit                         0x0800fab4   Section        0  net_ip6.o(i.net_ip6_uninit)
    i.net_itoa                               0x0800fad0   Section        0  net_common.o(i.net_itoa)
    i.net_itoa_n0                            0x0800fad8   Section        0  net_common.o(i.net_itoa_n0)
    i.net_loop_iface_init                    0x0800fae0   Section        0  net_loopback.o(i.net_loop_iface_init)
    i.net_loop_iface_run                     0x0800fb10   Section        0  net_loopback.o(i.net_loop_iface_run)
    i.net_loop_iface_uninit                  0x0800fbcc   Section        0  net_loopback.o(i.net_loop_iface_uninit)
    i.net_loop_send_frame                    0x0800fbf4   Section        0  net_loopback.o(i.net_loop_send_frame)
    i.net_mem_alloc                          0x0800fc64   Section        0  net_mem.o(i.net_mem_alloc)
    i.net_mem_avail                          0x0800fd24   Section        0  net_mem.o(i.net_mem_avail)
    i.net_mem_free                           0x0800fd40   Section        0  net_mem.o(i.net_mem_free)
    i.net_mem_init                           0x0800fde4   Section        0  net_mem.o(i.net_mem_init)
    i.net_mem_shrink                         0x0800fe54   Section        0  net_mem.o(i.net_mem_shrink)
    i.net_nbns_client_init                   0x0800fe9c   Section        0  net_nbns_client.o(i.net_nbns_client_init)
    i.net_nbns_client_uninit                 0x0800ff00   Section        0  net_nbns_client.o(i.net_nbns_client_uninit)
    i.net_ndp_cache_find                     0x0800ff38   Section        0  net_ndp.o(i.net_ndp_cache_find)
    i.net_ndp_cache_refresh                  0x080100fc   Section        0  net_ndp.o(i.net_ndp_cache_refresh)
    i.net_ndp_enqueue                        0x08010174   Section        0  net_ndp.o(i.net_ndp_enqueue)
    i.net_ndp_process                        0x080101e4   Section        0  net_ndp.o(i.net_ndp_process)
    i.net_path                               0x08010558   Section        0  net_sys.o(i.net_path)
    i.net_ping_client_init                   0x08010590   Section        0  net_ping_core.o(i.net_ping_client_init)
    i.net_ping_client_run                    0x080105b0   Section        0  net_ping_core.o(i.net_ping_client_run)
    i.net_ping_client_uninit                 0x08010630   Section        0  net_ping_core.o(i.net_ping_client_uninit)
    i.net_rand32                             0x08010650   Section        0  net_sys.o(i.net_rand32)
    i.net_strcasecmp                         0x0801066c   Section        0  net_common.o(i.net_strcasecmp)
    i.net_strchr                             0x0801069a   Section        0  net_common.o(i.net_strchr)
    i.net_strcmp                             0x080106b0   Section        0  net_common.o(i.net_strcmp)
    i.net_strcpy                             0x080106ca   Section        0  net_common.o(i.net_strcpy)
    i.net_strnchr                            0x080106dc   Section        0  net_common.o(i.net_strnchr)
    i.net_strncpy                            0x080106f8   Section        0  net_common.o(i.net_strncpy)
    i.net_strtoupper                         0x08010712   Section        0  net_common.o(i.net_strtoupper)
    i.net_sys_lock                           0x08010734   Section        0  net_sys.o(i.net_sys_lock)
    i.net_sys_resume                         0x08010740   Section        0  net_sys.o(i.net_sys_resume)
    i.net_sys_tick                           0x08010758   Section        0  net_sys.o(i.net_sys_tick)
    i.net_sys_unlock                         0x0801076c   Section        0  net_sys.o(i.net_sys_unlock)
    i.net_sys_wakeup                         0x08010778   Section        0  net_sys.o(i.net_sys_wakeup)
    i.net_tcp_abort                          0x08010798   Section        0  net_tcp.o(i.net_tcp_abort)
    i.net_tcp_close                          0x0801081c   Section        0  net_tcp.o(i.net_tcp_close)
    i.net_tcp_get_buf                        0x08010900   Section        0  net_tcp.o(i.net_tcp_get_buf)
    i.net_tcp_get_mss                        0x08010930   Section        0  net_tcp.o(i.net_tcp_get_mss)
    i.net_tcp_get_socket                     0x08010958   Section        0  net_tcp.o(i.net_tcp_get_socket)
    i.net_tcp_get_state                      0x080109c8   Section        0  net_tcp.o(i.net_tcp_get_state)
    i.net_tcp_listen                         0x080109f4   Section        0  net_tcp.o(i.net_tcp_listen)
    i.net_tcp_process                        0x08010aa4   Section        0  net_tcp.o(i.net_tcp_process)
    i.net_tcp_send                           0x0801124c   Section        0  net_tcp.o(i.net_tcp_send)
    i.net_tcp_set_option                     0x080113a8   Section        0  net_tcp.o(i.net_tcp_set_option)
    i.net_tcp_socket_init                    0x080114d4   Section        0  net_tcp.o(i.net_tcp_socket_init)
    i.net_tcp_socket_run                     0x080114fc   Section        0  net_tcp.o(i.net_tcp_socket_run)
    i.net_tcp_socket_uninit                  0x080118bc   Section        0  net_tcp.o(i.net_tcp_socket_uninit)
    i.net_udp_get_buf                        0x080118e4   Section        0  net_udp.o(i.net_udp_get_buf)
    i.net_udp_get_socket                     0x08011914   Section        0  net_udp.o(i.net_udp_get_socket)
    i.net_udp_open                           0x08011984   Section        0  net_udp.o(i.net_udp_open)
    i.net_udp_process                        0x08011a30   Section        0  net_udp.o(i.net_udp_process)
    i.net_udp_send_if                        0x08011b88   Section        0  net_udp.o(i.net_udp_send_if)
    i.net_udp_socket_init                    0x08011db4   Section        0  net_udp.o(i.net_udp_socket_init)
    i.net_udp_socket_uninit                  0x08011dd8   Section        0  net_udp.o(i.net_udp_socket_uninit)
    i.net_ultoa                              0x08011dfc   Section        0  net_common.o(i.net_ultoa)
    i.net_xtoul                              0x08011e04   Section        0  net_common.o(i.net_xtoul)
    i.ping_send_req                          0x08011e50   Section        0  net_ping_core.o(i.ping_send_req)
    ping_send_req                            0x08011e51   Thumb Code    24  net_ping_core.o(i.ping_send_req)
    i.proc_req_line                          0x08011e6c   Section        0  net_http_server.o(i.proc_req_line)
    proc_req_line                            0x08011e6d   Thumb Code    84  net_http_server.o(i.proc_req_line)
    i.que_free_list                          0x08011ec4   Section        0  net_ip4_frag.o(i.que_free_list)
    que_free_list                            0x08011ec5   Thumb Code    26  net_ip4_frag.o(i.que_free_list)
    i.read_script_line                       0x08011ede   Section        0  net_http_server.o(i.read_script_line)
    read_script_line                         0x08011edf   Thumb Code   160  net_http_server.o(i.read_script_line)
    i.search_delim                           0x08011f7e   Section        0  net_http_server.o(i.search_delim)
    search_delim                             0x08011f7f   Thumb Code    72  net_http_server.o(i.search_delim)
    i.sys_map_if                             0x08011fc6   Section        0  net_sys.o(i.sys_map_if)
    sys_map_if                               0x08011fc7   Thumb Code    24  net_sys.o(i.sys_map_if)
    i.sys_proc_tick                          0x08011fe0   Section        0  net_sys.o(i.sys_proc_tick)
    sys_proc_tick                            0x08011fe1   Thumb Code    72  net_sys.o(i.sys_proc_tick)
    i.tcp_map_socket                         0x0801202c   Section        0  net_tcp.o(i.tcp_map_socket)
    tcp_map_socket                           0x0801202d   Thumb Code   262  net_tcp.o(i.tcp_map_socket)
    i.tcp_parse_opt                          0x0801213c   Section        0  net_tcp.o(i.tcp_parse_opt)
    tcp_parse_opt                            0x0801213d   Thumb Code   126  net_tcp.o(i.tcp_parse_opt)
    i.tcp_proc_acknr                         0x080121c0   Section        0  net_tcp.o(i.tcp_proc_acknr)
    tcp_proc_acknr                           0x080121c1   Thumb Code   272  net_tcp.o(i.tcp_proc_acknr)
    i.tcp_proc_dupack                        0x080122dc   Section        0  net_tcp.o(i.tcp_proc_dupack)
    tcp_proc_dupack                          0x080122dd   Thumb Code   164  net_tcp.o(i.tcp_proc_dupack)
    i.tcp_que_free                           0x08012388   Section        0  net_tcp.o(i.tcp_que_free)
    tcp_que_free                             0x08012389   Thumb Code    26  net_tcp.o(i.tcp_que_free)
    i.tcp_que_init                           0x080123a2   Section        0  net_tcp.o(i.tcp_que_init)
    tcp_que_init                             0x080123a3   Thumb Code    26  net_tcp.o(i.tcp_que_init)
    i.tcp_que_resend                         0x080123bc   Section        0  net_tcp.o(i.tcp_que_resend)
    tcp_que_resend                           0x080123bd   Thumb Code   162  net_tcp.o(i.tcp_que_resend)
    i.tcp_send_ctrl                          0x08012468   Section        0  net_tcp.o(i.tcp_send_ctrl)
    tcp_send_ctrl                            0x08012469   Thumb Code   138  net_tcp.o(i.tcp_send_ctrl)
    i.tcp_send_data                          0x080124f8   Section        0  net_tcp.o(i.tcp_send_data)
    tcp_send_data                            0x080124f9   Thumb Code   118  net_tcp.o(i.tcp_send_data)
    i.tcp_send_reset                         0x08012574   Section        0  net_tcp.o(i.tcp_send_reset)
    tcp_send_reset                           0x08012575   Thumb Code   138  net_tcp.o(i.tcp_send_reset)
    i.tcp_set_cwnd                           0x08012604   Section        0  net_tcp.o(i.tcp_set_cwnd)
    tcp_set_cwnd                             0x08012605   Thumb Code    64  net_tcp.o(i.tcp_set_cwnd)
    i.tcp_transit                            0x08012648   Section        0  net_tcp.o(i.tcp_transit)
    tcp_transit                              0x08012649   Thumb Code   110  net_tcp.o(i.tcp_transit)
    i.tcp_write                              0x080126bc   Section        0  net_tcp.o(i.tcp_write)
    tcp_write                                0x080126bd   Thumb Code   258  net_tcp.o(i.tcp_write)
    i.udp_port_in_use                        0x080127c8   Section        0  net_udp.o(i.udp_port_in_use)
    udp_port_in_use                          0x080127c9   Thumb Code    40  net_udp.o(i.udp_port_in_use)
    i.ul2str                                 0x080127f4   Section        0  net_common.o(i.ul2str)
    ul2str                                   0x080127f5   Thumb Code    68  net_common.o(i.ul2str)
    i.utc_to_http                            0x08012838   Section        0  net_http_server.o(i.utc_to_http)
    utc_to_http                              0x08012839   Thumb Code   280  net_http_server.o(i.utc_to_http)
    .constdata                               0x0801295c   Section       36  http_server.o(.constdata)
    .constdata                               0x08012980   Section    52888  web.o(.constdata)
    imageFileData                            0x08012984   Data       52753  web.o(.constdata)
    imageFileTable                           0x0801f798   Data         128  web.o(.constdata)
    .constdata                               0x0801f818   Section        1  irq_armv7m.o(.constdata)
    .constdata                               0x0801f81c   Section      104  rtx_lib.o(.constdata)
    os_idle_thread_attr                      0x0801f81c   Data          36  rtx_lib.o(.constdata)
    os_timer_thread_attr                     0x0801f840   Data          36  rtx_lib.o(.constdata)
    os_timer_mq_attr                         0x0801f864   Data          24  rtx_lib.o(.constdata)
    .constdata                               0x0801f884   Section       36  phy_lan8742a.o(.constdata)
    DriverVersion                            0x0801f884   Data           4  phy_lan8742a.o(.constdata)
    .constdata                               0x0801f8a8   Section      148  emac_stm32f7xx.o(.constdata)
    eth_pins                                 0x0801f8a8   Data          72  emac_stm32f7xx.o(.constdata)
    DriverVersion                            0x0801f8f0   Data           4  emac_stm32f7xx.o(.constdata)
    DriverCapabilities                       0x0801f8f4   Data           4  emac_stm32f7xx.o(.constdata)
    .constdata                               0x0801f93c   Section       24  eventrecorder.o(.constdata)
    __tagsym$$used                           0x0801f93c   Number         0  eventrecorder.o(.constdata)
    .constdata                               0x0801f954   Section       24  system_stm32f7xx.o(.constdata)
    .constdata                               0x0801f96c   Section      616  net_config.o(.constdata)
    net_lock_attr                            0x0801f96c   Data          16  net_config.o(.constdata)
    mem_lock_attr                            0x0801f97c   Data          16  net_config.o(.constdata)
    net_timer_attr                           0x0801f98c   Data          16  net_config.o(.constdata)
    net_thread_attr                          0x0801f99c   Data          36  net_config.o(.constdata)
    eth0_lock_attr                           0x0801f9c0   Data          16  net_config.o(.constdata)
    eth0_thread_attr                         0x0801f9d0   Data          36  net_config.o(.constdata)
    eth0_arp_config                          0x0801fa10   Data          20  net_config.o(.constdata)
    eth0_icmp_config                         0x0801fa24   Data          12  net_config.o(.constdata)
    eth0_ip4_config                          0x0801fa30   Data          40  net_config.o(.constdata)
    eth0_ll_config                           0x0801fa84   Data          32  net_config.o(.constdata)
    sys_fn_init                              0x0801fb44   Data          40  net_config.o(.constdata)
    sys_fn_run                               0x0801fb6c   Data          32  net_config.o(.constdata)
    .constdata                               0x0801fbd4   Section       44  net_loopback.o(.constdata)
    .constdata                               0x0801fc00   Section       12  net_loopback.o(.constdata)
    loop_ll_config                           0x0801fc00   Data          12  net_loopback.o(.constdata)
    .constdata                               0x0801fc0c   Section        8  net_nbns_client.o(.constdata)
    nbns_ttllen                              0x0801fc0c   Data           8  net_nbns_client.o(.constdata)
    .constdata                               0x0801fc14   Section      250  net_http_server.o(.constdata)
    DYear                                    0x0801fc14   Data           6  net_http_server.o(.constdata)
    Month                                    0x0801fc1a   Data          48  net_http_server.o(.constdata)
    WkDay                                    0x0801fc4a   Data          28  net_http_server.o(.constdata)
    DMonth                                   0x0801fc66   Data          24  net_http_server.o(.constdata)
    ftype                                    0x0801fc7e   Data         144  net_http_server.o(.constdata)
    .constdata                               0x0801fd10   Section       24  net_http_server_auth.o(.constdata)
    .constdata                               0x0801fd28   Section       18  net_ping_core.o(.constdata)
    .constdata                               0x0801fd3a   Section       16  net_addr.o(.constdata)
    .constdata                               0x0801fd4a   Section        6  net_addr.o(.constdata)
    .constdata                               0x0801fd50   Section        4  net_ip4.o(.constdata)
    .constdata                               0x0801fd54   Section       32  net_ip6.o(.constdata)
    .constdata                               0x0801fd74   Section       24  net_http_server_err.o(.constdata)
    .constdata                               0x0801fd8c   Section      144  net_base64.o(.constdata)
    enc_map                                  0x0801fd8c   Data          64  net_base64.o(.constdata)
    dec_map                                  0x0801fdcc   Data          80  net_base64.o(.constdata)
    .constdata                               0x0801fe1c   Section        4  net_version.o(.constdata)
    .constdata                               0x0801fe20   Section       64  ctype_c.o(.constdata)
    .conststring                             0x0801fe60   Section      229  net_config.o(.conststring)
    .conststring                             0x0801ff48   Section      515  net_http_server_err.o(.conststring)
    .conststrlit                             0x0802014c   Section       11  rtx_kernel.o(.conststrlit)
    .rodata                                  0x08020158   Section      168  rtx_lib.o(.rodata)
    __tagsym$$used                           0x08020158   Number         0  rtx_lib.o(.rodata)
    __tagsym$$used                           0x080201c8   Number         0  rtx_lib.o(.rodata)
    .bss.noinit                              0x20000000   Section     1188  eventrecorder.o(.bss.noinit)
    EventBuffer                              0x20000000   Data        1024  eventrecorder.o(.bss.noinit)
    EventFilter                              0x20000400   Data         128  eventrecorder.o(.bss.noinit)
    EventStatus                              0x20000480   Data          36  eventrecorder.o(.bss.noinit)
    .ARM.__AT_0x2000C000                     0x2000c000   Section     9408  emac_stm32f7xx.o(.ARM.__AT_0x2000C000)
    Desc                                     0x2000c000   Data        9408  emac_stm32f7xx.o(.ARM.__AT_0x2000C000)
    .bss.os                                  0x20020000   Section    32832  rtx_lib.o(.bss.os)
    os_mem                                   0x20020000   Data       32768  rtx_lib.o(.bss.os)
    os_isr_queue                             0x20028000   Data          64  rtx_lib.o(.bss.os)
    .bss.os                                  0x20028040   Section        1  os_systick.o(.bss.os)
    PendST                                   0x20028040   Data           1  os_systick.o(.bss.os)
    .bss.os.msgqueue.cb                      0x20028044   Section       52  rtx_lib.o(.bss.os.msgqueue.cb)
    os_timer_mq_cb                           0x20028044   Data          52  rtx_lib.o(.bss.os.msgqueue.cb)
    .bss.os.msgqueue.mem                     0x20028078   Section       80  rtx_lib.o(.bss.os.msgqueue.mem)
    os_timer_mq_data                         0x20028078   Data          80  rtx_lib.o(.bss.os.msgqueue.mem)
    .bss.os.mutex.cb                         0x200280c8   Section       56  net_config.o(.bss.os.mutex.cb)
    net_lock_cb                              0x200280c8   Data          28  net_config.o(.bss.os.mutex.cb)
    mem_lock_cb                              0x200280e4   Data          28  net_config.o(.bss.os.mutex.cb)
    .bss.os.semaphore.cb                     0x20028100   Section       16  net_config.o(.bss.os.semaphore.cb)
    eth0_lock_cb                             0x20028100   Data          16  net_config.o(.bss.os.semaphore.cb)
    .bss.os.thread.cb                        0x20028110   Section      136  rtx_lib.o(.bss.os.thread.cb)
    os_idle_thread_cb                        0x20028110   Data          68  rtx_lib.o(.bss.os.thread.cb)
    os_timer_thread_cb                       0x20028154   Data          68  rtx_lib.o(.bss.os.thread.cb)
    .bss.os.thread.cb                        0x20028198   Section      136  net_config.o(.bss.os.thread.cb)
    net_thread_cb                            0x20028198   Data          68  net_config.o(.bss.os.thread.cb)
    eth0_thread_cb                           0x200281dc   Data          68  net_config.o(.bss.os.thread.cb)
    .bss.os.thread.idle.stack                0x20028220   Section      512  rtx_lib.o(.bss.os.thread.idle.stack)
    os_idle_thread_stack                     0x20028220   Data         512  rtx_lib.o(.bss.os.thread.idle.stack)
    .bss.os.thread.timer.stack               0x20028420   Section      512  rtx_lib.o(.bss.os.thread.timer.stack)
    os_timer_thread_stack                    0x20028420   Data         512  rtx_lib.o(.bss.os.thread.timer.stack)
    .bss.os.timer.cb                         0x20028620   Section       32  net_config.o(.bss.os.timer.cb)
    net_timer_cb                             0x20028620   Data          32  net_config.o(.bss.os.timer.cb)
    .data                                    0x20028640   Section       84  http_server_cgi.o(.data)
    .data                                    0x20028694   Section        4  main.o(.data)
    ticks                                    0x20028694   Data           4  main.o(.data)
    .data                                    0x20028698   Section        1  eventrecorder.o(.data)
    TS_OverflowLock                          0x20028698   Data           1  eventrecorder.o(.data)
    .data                                    0x2002869c   Section        9  stm32f7xx_hal.o(.data)
    .data                                    0x200286a8   Section        4  system_stm32f7xx.o(.data)
    .data                                    0x200286ac   Section       14  net_config.o(.data)
    k_mul                                    0x200286ac   Data           4  net_config.o(.data)
    eth0_mac_addr                            0x200286b0   Data           6  net_config.o(.data)
    eth0_state                               0x200286b6   Data           4  net_config.o(.data)
    .data                                    0x200286bc   Section        4  net_loopback.o(.data)
    loop_control                             0x200286bc   Data           4  net_loopback.o(.data)
    .data                                    0x200286c0   Section        4  net_ip4_frag.o(.data)
    dfrag                                    0x200286c0   Data           4  net_ip4_frag.o(.data)
    .data                                    0x200286c4   Section        1  net_icmp.o(.data)
    .data                                    0x200286c6   Section        2  net_udp.o(.data)
    port                                     0x200286c6   Data           2  net_udp.o(.data)
    .data                                    0x200286c8   Section        4  net_tcp.o(.data)
    socket                                   0x200286c8   Data           1  net_tcp.o(.data)
    port                                     0x200286ca   Data           2  net_tcp.o(.data)
    .data                                    0x200286cc   Section        1  net_nbns_client.o(.data)
    nbns_socket                              0x200286cc   Data           1  net_nbns_client.o(.data)
    .data                                    0x200286d0   Section       12  net_http_server.o(.data)
    session                                  0x200286d0   Data           1  net_http_server.o(.data)
    cgi                                      0x200286d4   Data           8  net_http_server.o(.data)
    .data                                    0x200286dc   Section        8  net_ip4.o(.data)
    ip4_control                              0x200286dc   Data           8  net_ip4.o(.data)
    .data                                    0x200286e4   Section        4  net_ip6.o(.data)
    ip6_control                              0x200286e4   Data           4  net_ip6.o(.data)
    .data.os                                 0x200286e8   Section      164  rtx_kernel.o(.data.os)
    .bss                                     0x20028790   Section     1024  http_server.o(.bss)
    .bss                                     0x20028b90   Section       56  http_server_cgi.o(.bss)
    ip_addr                                  0x20028b90   Data          16  http_server_cgi.o(.bss)
    ip_string                                0x20028ba0   Data          40  http_server_cgi.o(.bss)
    .bss                                     0x20028bc8   Section       12  phy_lan8742a.o(.bss)
    PHY                                      0x20028bc8   Data          12  phy_lan8742a.o(.bss)
    .bss                                     0x20028bd4   Section       12  emac_stm32f7xx.o(.bss)
    Emac                                     0x20028bd4   Data          12  emac_stm32f7xx.o(.bss)
    .bss                                     0x20028be0   Section    15280  net_config.o(.bss)
    net_stack                                0x20028be0   Data        1024  net_config.o(.bss)
    eth0_stack                               0x20028fe0   Data        1024  net_config.o(.bss)
    mem_pool                                 0x200293e0   Data       12000  net_config.o(.bss)
    eth0_arp_table                           0x2002c2c0   Data         200  net_config.o(.bss)
    eth0_localm                              0x2002c388   Data          24  net_config.o(.bss)
    ip4_frag_scb                             0x2002c3a0   Data          40  net_config.o(.bss)
    udp_scb                                  0x2002c3c8   Data          80  net_config.o(.bss)
    tcp_scb                                  0x2002c418   Data         552  net_config.o(.bss)
    http_scb                                 0x2002c640   Data         336  net_config.o(.bss)
    .bss                                     0x2002c790   Section      160  net_eth.o(.bss)
    .bss                                     0x2002c830   Section       24  net_arp.o(.bss)
    .bss                                     0x2002c848   Section       28  net_udp.o(.bss)
    addr                                     0x2002c848   Data          28  net_udp.o(.bss)
    .bss                                     0x2002c864   Section      152  net_http_server.o(.bss)
    root_buf                                 0x2002c864   Data          80  net_http_server.o(.bss)
    user_buf                                 0x2002c8b4   Data          16  net_http_server.o(.bss)
    passw_buf                                0x2002c8c4   Data          33  net_http_server.o(.bss)
    .bss                                     0x2002c8fc   Section       44  net_ping_core.o(.bss)
    .bss                                     0x2002c928   Section       56  net_sys.o(.bss)
    name_buf                                 0x2002c928   Data          16  net_sys.o(.bss)
    os_id                                    0x2002c954   Data          12  net_sys.o(.bss)
    .bss                                     0x2002c960   Section       36  net_sys.o(.bss)
    .bss                                     0x2002c984   Section       92  net_addr.o(.bss)
    buf                                      0x2002c984   Data          16  net_addr.o(.bss)
    buf                                      0x2002c994   Data          40  net_addr.o(.bss)
    buf                                      0x2002c9bc   Data          18  net_addr.o(.bss)
    buf                                      0x2002c9d0   Data          16  net_addr.o(.bss)
    .bss                                     0x2002c9e0   Section       20  net_mem.o(.bss)
    mem_control                              0x2002c9e0   Data          20  net_mem.o(.bss)
    STACK                                    0x2002c9f8   Section     1024  startup_stm32f769xx.o(STACK)

    Global Symbols

    Symbol Name                              Value     Ov Type        Size  Object(Section)

    BuildAttributes$$THM_ISAv4$E$P$D$K$B$S$7EM$VFPv5_D16$PE$PLD8$A:L22UL41UL21$X:L11$S22US41US21$IEEE1$IW$~IW$USESV6$~STKCKD$USESV7$~SHL$OSPACE$ROPI$EBA8$MICROLIB$REQ8$PRES8$EABIv2 0x00000000   Number         0  anon$$obj.o ABSOLUTE
    __ARM_use_no_argv                        0x00000000   Number         0  main.o ABSOLUTE
    _printf_a                                0x00000000   Number         0  stubs.o ABSOLUTE
    _printf_c                                0x00000000   Number         0  stubs.o ABSOLUTE
    _printf_charcount                        0x00000000   Number         0  stubs.o ABSOLUTE
    _printf_d                                0x00000000   Number         0  stubs.o ABSOLUTE
    _printf_e                                0x00000000   Number         0  stubs.o ABSOLUTE
    _printf_f                                0x00000000   Number         0  stubs.o ABSOLUTE
    _printf_flags                            0x00000000   Number         0  stubs.o ABSOLUTE
    _printf_fp_dec                           0x00000000   Number         0  stubs.o ABSOLUTE
    _printf_fp_hex                           0x00000000   Number         0  stubs.o ABSOLUTE
    _printf_g                                0x00000000   Number         0  stubs.o ABSOLUTE
    _printf_i                                0x00000000   Number         0  stubs.o ABSOLUTE
    _printf_int_dec                          0x00000000   Number         0  stubs.o ABSOLUTE
    _printf_l                                0x00000000   Number         0  stubs.o ABSOLUTE
    _printf_lc                               0x00000000   Number         0  stubs.o ABSOLUTE
    _printf_ll                               0x00000000   Number         0  stubs.o ABSOLUTE
    _printf_lld                              0x00000000   Number         0  stubs.o ABSOLUTE
    _printf_lli                              0x00000000   Number         0  stubs.o ABSOLUTE
    _printf_llo                              0x00000000   Number         0  stubs.o ABSOLUTE
    _printf_llu                              0x00000000   Number         0  stubs.o ABSOLUTE
    _printf_llx                              0x00000000   Number         0  stubs.o ABSOLUTE
    _printf_longlong_dec                     0x00000000   Number         0  stubs.o ABSOLUTE
    _printf_longlong_hex                     0x00000000   Number         0  stubs.o ABSOLUTE
    _printf_longlong_oct                     0x00000000   Number         0  stubs.o ABSOLUTE
    _printf_ls                               0x00000000   Number         0  stubs.o ABSOLUTE
    _printf_mbtowc                           0x00000000   Number         0  stubs.o ABSOLUTE
    _printf_n                                0x00000000   Number         0  stubs.o ABSOLUTE
    _printf_o                                0x00000000   Number         0  stubs.o ABSOLUTE
    _printf_p                                0x00000000   Number         0  stubs.o ABSOLUTE
    _printf_percent                          0x00000000   Number         0  stubs.o ABSOLUTE
    _printf_pre_padding                      0x00000000   Number         0  stubs.o ABSOLUTE
    _printf_return_value                     0x00000000   Number         0  stubs.o ABSOLUTE
    _printf_s                                0x00000000   Number         0  stubs.o ABSOLUTE
    _printf_sizespec                         0x00000000   Number         0  stubs.o ABSOLUTE
    _printf_str                              0x00000000   Number         0  stubs.o ABSOLUTE
    _printf_truncate_signed                  0x00000000   Number         0  stubs.o ABSOLUTE
    _printf_truncate_unsigned                0x00000000   Number         0  stubs.o ABSOLUTE
    _printf_u                                0x00000000   Number         0  stubs.o ABSOLUTE
    _printf_wc                               0x00000000   Number         0  stubs.o ABSOLUTE
    _printf_wctomb                           0x00000000   Number         0  stubs.o ABSOLUTE
    _printf_widthprec                        0x00000000   Number         0  stubs.o ABSOLUTE
    _printf_x                                0x00000000   Number         0  stubs.o ABSOLUTE
    .bss.os.evflags.cb$$Base                  - Undefined Weak Reference
    .bss.os.evflags.cb$$Limit                 - Undefined Weak Reference
    .bss.os.mempool.cb$$Base                  - Undefined Weak Reference
    .bss.os.mempool.cb$$Limit                 - Undefined Weak Reference
    __arm_fini_                               - Undefined Weak Reference
    __cpp_initialize__aeabi_                  - Undefined Weak Reference
    __cxa_finalize                            - Undefined Weak Reference
    _clock_init                               - Undefined Weak Reference
    _microlib_exit                            - Undefined Weak Reference
    _scanf_longlong                           - Undefined Weak Reference
    _scanf_real                               - Undefined Weak Reference
    _scanf_string                             - Undefined Weak Reference
    __Vectors_Size                           0x000001f8   Number         0  startup_stm32f769xx.o ABSOLUTE
    __Vectors                                0x08000000   Data           4  startup_stm32f769xx.o(RESET)
    __Vectors_End                            0x080001f8   Data           0  startup_stm32f769xx.o(RESET)
    __main                                   0x080001f9   Thumb Code     0  entry.o(.ARM.Collect$$$$00000000)
    _main_stk                                0x080001f9   Thumb Code     0  entry2.o(.ARM.Collect$$$$00000001)
    _main_scatterload                        0x080001fd   Thumb Code     0  entry5.o(.ARM.Collect$$$$00000004)
    __main_after_scatterload                 0x08000201   Thumb Code     0  entry5.o(.ARM.Collect$$$$00000004)
    _main_clock                              0x08000201   Thumb Code     0  entry7b.o(.ARM.Collect$$$$00000008)
    _main_cpp_init                           0x08000201   Thumb Code     0  entry8b.o(.ARM.Collect$$$$0000000A)
    _main_init                               0x08000201   Thumb Code     0  entry9a.o(.ARM.Collect$$$$0000000B)
    __rt_lib_shutdown_fini                   0x08000209   Thumb Code     0  entry12b.o(.ARM.Collect$$$$0000000E)
    __rt_final_cpp                           0x0800020d   Thumb Code     0  entry10a.o(.ARM.Collect$$$$0000000F)
    __rt_final_exit                          0x0800020d   Thumb Code     0  entry11a.o(.ARM.Collect$$$$00000011)
    __asm___13_rtx_mempool_c_7914b4c7__atomic_wr8 0x08000211   Thumb Code    16  rtx_mempool.o(.emb_text)
    __asm___13_rtx_mempool_c_7914b4c7__atomic_set32 0x08000221   Thumb Code    20  rtx_mempool.o(.emb_text)
    __asm___13_rtx_mempool_c_7914b4c7__atomic_clr32 0x08000235   Thumb Code    22  rtx_mempool.o(.emb_text)
    __asm___13_rtx_mempool_c_7914b4c7__atomic_chk32_all 0x0800024b   Thumb Code    38  rtx_mempool.o(.emb_text)
    __asm___13_rtx_mempool_c_7914b4c7__atomic_chk32_any 0x08000271   Thumb Code    34  rtx_mempool.o(.emb_text)
    __asm___13_rtx_mempool_c_7914b4c7__atomic_inc32 0x08000293   Thumb Code    18  rtx_mempool.o(.emb_text)
    __asm___13_rtx_mempool_c_7914b4c7__atomic_inc16_lt 0x080002a5   Thumb Code    30  rtx_mempool.o(.emb_text)
    __asm___13_rtx_mempool_c_7914b4c7__atomic_inc16_lim 0x080002c3   Thumb Code    26  rtx_mempool.o(.emb_text)
    __asm___13_rtx_mempool_c_7914b4c7__atomic_dec32 0x080002dd   Thumb Code    18  rtx_mempool.o(.emb_text)
    __asm___13_rtx_mempool_c_7914b4c7__atomic_dec32_nz 0x080002ef   Thumb Code    26  rtx_mempool.o(.emb_text)
    __asm___13_rtx_mempool_c_7914b4c7__atomic_dec16_nz 0x08000309   Thumb Code    26  rtx_mempool.o(.emb_text)
    __asm___13_rtx_mempool_c_7914b4c7__atomic_link_get 0x08000323   Thumb Code    26  rtx_mempool.o(.emb_text)
    __asm___13_rtx_mempool_c_7914b4c7__atomic_link_put 0x0800033d   Thumb Code    28  rtx_mempool.o(.emb_text)
    __asm___14_rtx_msgqueue_c_a86a7a93__atomic_wr8 0x08000359   Thumb Code    16  rtx_msgqueue.o(.emb_text)
    __asm___14_rtx_msgqueue_c_a86a7a93__atomic_set32 0x08000369   Thumb Code    20  rtx_msgqueue.o(.emb_text)
    __asm___14_rtx_msgqueue_c_a86a7a93__atomic_clr32 0x0800037d   Thumb Code    22  rtx_msgqueue.o(.emb_text)
    __asm___14_rtx_msgqueue_c_a86a7a93__atomic_chk32_all 0x08000393   Thumb Code    38  rtx_msgqueue.o(.emb_text)
    __asm___14_rtx_msgqueue_c_a86a7a93__atomic_chk32_any 0x080003b9   Thumb Code    34  rtx_msgqueue.o(.emb_text)
    __asm___14_rtx_msgqueue_c_a86a7a93__atomic_inc32 0x080003db   Thumb Code    18  rtx_msgqueue.o(.emb_text)
    __asm___14_rtx_msgqueue_c_a86a7a93__atomic_inc16_lt 0x080003ed   Thumb Code    30  rtx_msgqueue.o(.emb_text)
    __asm___14_rtx_msgqueue_c_a86a7a93__atomic_inc16_lim 0x0800040b   Thumb Code    26  rtx_msgqueue.o(.emb_text)
    __asm___14_rtx_msgqueue_c_a86a7a93__atomic_dec32 0x08000425   Thumb Code    18  rtx_msgqueue.o(.emb_text)
    __asm___14_rtx_msgqueue_c_a86a7a93__atomic_dec32_nz 0x08000437   Thumb Code    26  rtx_msgqueue.o(.emb_text)
    __asm___14_rtx_msgqueue_c_a86a7a93__atomic_dec16_nz 0x08000451   Thumb Code    26  rtx_msgqueue.o(.emb_text)
    __asm___14_rtx_msgqueue_c_a86a7a93__atomic_link_get 0x0800046b   Thumb Code    26  rtx_msgqueue.o(.emb_text)
    __asm___14_rtx_msgqueue_c_a86a7a93__atomic_link_put 0x08000485   Thumb Code    28  rtx_msgqueue.o(.emb_text)
    __asm___15_rtx_semaphore_c_c705bb47__atomic_wr8 0x080004a1   Thumb Code    16  rtx_semaphore.o(.emb_text)
    __asm___15_rtx_semaphore_c_c705bb47__atomic_set32 0x080004b1   Thumb Code    20  rtx_semaphore.o(.emb_text)
    __asm___15_rtx_semaphore_c_c705bb47__atomic_clr32 0x080004c5   Thumb Code    22  rtx_semaphore.o(.emb_text)
    __asm___15_rtx_semaphore_c_c705bb47__atomic_chk32_all 0x080004db   Thumb Code    38  rtx_semaphore.o(.emb_text)
    __asm___15_rtx_semaphore_c_c705bb47__atomic_chk32_any 0x08000501   Thumb Code    34  rtx_semaphore.o(.emb_text)
    __asm___15_rtx_semaphore_c_c705bb47__atomic_inc32 0x08000523   Thumb Code    18  rtx_semaphore.o(.emb_text)
    __asm___15_rtx_semaphore_c_c705bb47__atomic_inc16_lt 0x08000535   Thumb Code    30  rtx_semaphore.o(.emb_text)
    __asm___15_rtx_semaphore_c_c705bb47__atomic_inc16_lim 0x08000553   Thumb Code    26  rtx_semaphore.o(.emb_text)
    __asm___15_rtx_semaphore_c_c705bb47__atomic_dec32 0x0800056d   Thumb Code    18  rtx_semaphore.o(.emb_text)
    __asm___15_rtx_semaphore_c_c705bb47__atomic_dec32_nz 0x0800057f   Thumb Code    26  rtx_semaphore.o(.emb_text)
    __asm___15_rtx_semaphore_c_c705bb47__atomic_dec16_nz 0x08000599   Thumb Code    26  rtx_semaphore.o(.emb_text)
    __asm___15_rtx_semaphore_c_c705bb47__atomic_link_get 0x080005b3   Thumb Code    26  rtx_semaphore.o(.emb_text)
    __asm___15_rtx_semaphore_c_c705bb47__atomic_link_put 0x080005cd   Thumb Code    28  rtx_semaphore.o(.emb_text)
    __asm___12_rtx_system_c_024f2f18__atomic_wr8 0x080005e9   Thumb Code    16  rtx_system.o(.emb_text)
    __asm___12_rtx_system_c_024f2f18__atomic_set32 0x080005f9   Thumb Code    20  rtx_system.o(.emb_text)
    __asm___12_rtx_system_c_024f2f18__atomic_clr32 0x0800060d   Thumb Code    22  rtx_system.o(.emb_text)
    __asm___12_rtx_system_c_024f2f18__atomic_chk32_all 0x08000623   Thumb Code    38  rtx_system.o(.emb_text)
    __asm___12_rtx_system_c_024f2f18__atomic_chk32_any 0x08000649   Thumb Code    34  rtx_system.o(.emb_text)
    __asm___12_rtx_system_c_024f2f18__atomic_inc32 0x0800066b   Thumb Code    18  rtx_system.o(.emb_text)
    __asm___12_rtx_system_c_024f2f18__atomic_inc16_lt 0x0800067d   Thumb Code    30  rtx_system.o(.emb_text)
    __asm___12_rtx_system_c_024f2f18__atomic_inc16_lim 0x0800069b   Thumb Code    26  rtx_system.o(.emb_text)
    __asm___12_rtx_system_c_024f2f18__atomic_dec32 0x080006b5   Thumb Code    18  rtx_system.o(.emb_text)
    __asm___12_rtx_system_c_024f2f18__atomic_dec32_nz 0x080006c7   Thumb Code    26  rtx_system.o(.emb_text)
    __asm___12_rtx_system_c_024f2f18__atomic_dec16_nz 0x080006e1   Thumb Code    26  rtx_system.o(.emb_text)
    __asm___12_rtx_system_c_024f2f18__atomic_link_get 0x080006fb   Thumb Code    26  rtx_system.o(.emb_text)
    __asm___12_rtx_system_c_024f2f18__atomic_link_put 0x08000715   Thumb Code    28  rtx_system.o(.emb_text)
    __asm___12_rtx_thread_c_add96be5__atomic_wr8 0x08000731   Thumb Code    16  rtx_thread.o(.emb_text)
    __asm___12_rtx_thread_c_add96be5__atomic_set32 0x08000741   Thumb Code    20  rtx_thread.o(.emb_text)
    __asm___12_rtx_thread_c_add96be5__atomic_clr32 0x08000755   Thumb Code    22  rtx_thread.o(.emb_text)
    __asm___12_rtx_thread_c_add96be5__atomic_chk32_all 0x0800076b   Thumb Code    38  rtx_thread.o(.emb_text)
    __asm___12_rtx_thread_c_add96be5__atomic_chk32_any 0x08000791   Thumb Code    34  rtx_thread.o(.emb_text)
    __asm___12_rtx_thread_c_add96be5__atomic_inc32 0x080007b3   Thumb Code    18  rtx_thread.o(.emb_text)
    __asm___12_rtx_thread_c_add96be5__atomic_inc16_lt 0x080007c5   Thumb Code    30  rtx_thread.o(.emb_text)
    __asm___12_rtx_thread_c_add96be5__atomic_inc16_lim 0x080007e3   Thumb Code    26  rtx_thread.o(.emb_text)
    __asm___12_rtx_thread_c_add96be5__atomic_dec32 0x080007fd   Thumb Code    18  rtx_thread.o(.emb_text)
    __asm___12_rtx_thread_c_add96be5__atomic_dec32_nz 0x0800080f   Thumb Code    26  rtx_thread.o(.emb_text)
    __asm___12_rtx_thread_c_add96be5__atomic_dec16_nz 0x08000829   Thumb Code    26  rtx_thread.o(.emb_text)
    __asm___12_rtx_thread_c_add96be5__atomic_link_get 0x08000843   Thumb Code    26  rtx_thread.o(.emb_text)
    __asm___12_rtx_thread_c_add96be5__atomic_link_put 0x0800085d   Thumb Code    28  rtx_thread.o(.emb_text)
    __asm___15_EventRecorder_c_e8d3082c__atomic_inc8 0x08000879   Thumb Code    18  eventrecorder.o(.emb_text)
    __asm___15_EventRecorder_c_e8d3082c__atomic_inc32 0x0800088b   Thumb Code    18  eventrecorder.o(.emb_text)
    __asm___15_EventRecorder_c_e8d3082c__atomic_wr8 0x0800089d   Thumb Code    16  eventrecorder.o(.emb_text)
    __asm___15_EventRecorder_c_e8d3082c__atomic_wr32 0x080008ad   Thumb Code    16  eventrecorder.o(.emb_text)
    __asm___15_EventRecorder_c_e8d3082c__LockRecord 0x080008bd   Thumb Code    34  eventrecorder.o(.emb_text)
    __asm___15_EventRecorder_c_e8d3082c__UnlockRecord 0x080008df   Thumb Code    30  eventrecorder.o(.emb_text)
    netDHCP_Notify                           0x080008fd   Thumb Code     2  http_server.o(.text)
    app_main                                 0x080008ff   Thumb Code     8  http_server.o(.text)
    netCGI_ProcessQuery                      0x08000909   Thumb Code   176  http_server_cgi.o(.text)
    netCGI_ProcessData                       0x080009b9   Thumb Code   478  http_server_cgi.o(.text)
    netCGI_Script                            0x08000b97   Thumb Code  1024  http_server_cgi.o(.text)
    imageFileInfo                            0x08000fbd   Thumb Code    96  web.o(.text)
    HAL_GetTick                              0x08001025   Thumb Code    66  main.o(.text)
    HAL_InitTick                             0x08001067   Thumb Code     6  main.o(.text)
    main                                     0x080011d5   Thumb Code    42  main.o(.text)
    SVC_Handler                              0x08001219   Thumb Code   108  irq_armv7m.o(.text)
    PendSV_Handler                           0x08001285   Thumb Code    16  irq_armv7m.o(.text)
    SysTick_Handler                          0x08001295   Thumb Code    16  irq_armv7m.o(.text)
    osDelay                                  0x08001341   Thumb Code    54  rtx_delay.o(.text)
    osDelayUntil                             0x08001377   Thumb Code    54  rtx_delay.o(.text)
    EvrRtxMemoryInit                         0x080013c9   Thumb Code    28  rtx_evr.o(.text)
    EvrRtxMemoryAlloc                        0x080013e5   Thumb Code    26  rtx_evr.o(.text)
    EvrRtxMemoryFree                         0x080013ff   Thumb Code    28  rtx_evr.o(.text)
    EvrRtxMemoryBlockInit                    0x0800141b   Thumb Code    28  rtx_evr.o(.text)
    EvrRtxMemoryBlockAlloc                   0x08001437   Thumb Code    20  rtx_evr.o(.text)
    EvrRtxMemoryBlockFree                    0x0800144b   Thumb Code    28  rtx_evr.o(.text)
    EvrRtxKernelError                        0x08001467   Thumb Code    18  rtx_evr.o(.text)
    EvrRtxKernelInitialize                   0x08001479   Thumb Code    14  rtx_evr.o(.text)
    EvrRtxKernelInitialized                  0x08001487   Thumb Code    14  rtx_evr.o(.text)
    EvrRtxKernelGetInfo                      0x08001495   Thumb Code    28  rtx_evr.o(.text)
    EvrRtxKernelInfoRetrieved                0x080014b1   Thumb Code    36  rtx_evr.o(.text)
    EvrRtxKernelStart                        0x080014d5   Thumb Code    16  rtx_evr.o(.text)
    EvrRtxKernelStarted                      0x080014e5   Thumb Code    16  rtx_evr.o(.text)
    EvrRtxKernelLock                         0x080014f5   Thumb Code    16  rtx_evr.o(.text)
    EvrRtxKernelLocked                       0x08001505   Thumb Code    18  rtx_evr.o(.text)
    EvrRtxKernelUnlock                       0x08001517   Thumb Code    16  rtx_evr.o(.text)
    EvrRtxKernelUnlocked                     0x08001527   Thumb Code    18  rtx_evr.o(.text)
    EvrRtxKernelRestoreLock                  0x08001539   Thumb Code    18  rtx_evr.o(.text)
    EvrRtxKernelLockRestored                 0x0800154b   Thumb Code    18  rtx_evr.o(.text)
    EvrRtxKernelSuspend                      0x0800155d   Thumb Code    16  rtx_evr.o(.text)
    EvrRtxKernelSuspended                    0x0800156d   Thumb Code    18  rtx_evr.o(.text)
    EvrRtxKernelResume                       0x0800157f   Thumb Code    18  rtx_evr.o(.text)
    EvrRtxKernelResumed                      0x08001591   Thumb Code    16  rtx_evr.o(.text)
    EvrRtxKernelGetTickCount                 0x080015a1   Thumb Code    18  rtx_evr.o(.text)
    EvrRtxKernelGetTickFreq                  0x080015b3   Thumb Code    18  rtx_evr.o(.text)
    EvrRtxKernelGetSysTimerCount             0x080015c5   Thumb Code    18  rtx_evr.o(.text)
    EvrRtxKernelGetSysTimerFreq              0x080015d7   Thumb Code    18  rtx_evr.o(.text)
    EvrRtxKernelErrorNotify                  0x080015e9   Thumb Code    20  rtx_evr.o(.text)
    EvrRtxThreadError                        0x080015fd   Thumb Code    20  rtx_evr.o(.text)
    EvrRtxThreadNew                          0x08001611   Thumb Code    26  rtx_evr.o(.text)
    EvrRtxThreadCreated                      0x0800162b   Thumb Code    36  rtx_evr.o(.text)
    EvrRtxThreadGetName                      0x0800164f   Thumb Code    20  rtx_evr.o(.text)
    EvrRtxThreadGetId                        0x08001663   Thumb Code    18  rtx_evr.o(.text)
    EvrRtxThreadGetState                     0x08001675   Thumb Code    20  rtx_evr.o(.text)
    EvrRtxThreadGetStackSize                 0x08001689   Thumb Code    20  rtx_evr.o(.text)
    EvrRtxThreadGetStackSpace                0x0800169d   Thumb Code    20  rtx_evr.o(.text)
    EvrRtxThreadSetPriority                  0x080016b1   Thumb Code    20  rtx_evr.o(.text)
    EvrRtxThreadPriorityUpdated              0x080016c5   Thumb Code    20  rtx_evr.o(.text)
    EvrRtxThreadGetPriority                  0x080016d9   Thumb Code    20  rtx_evr.o(.text)
    EvrRtxThreadYield                        0x080016ed   Thumb Code    16  rtx_evr.o(.text)
    EvrRtxThreadSuspend                      0x080016fd   Thumb Code    18  rtx_evr.o(.text)
    EvrRtxThreadSuspended                    0x0800170f   Thumb Code    18  rtx_evr.o(.text)
    EvrRtxThreadResume                       0x08001721   Thumb Code    18  rtx_evr.o(.text)
    EvrRtxThreadResumed                      0x08001733   Thumb Code    18  rtx_evr.o(.text)
    EvrRtxThreadDetach                       0x08001745   Thumb Code    18  rtx_evr.o(.text)
    EvrRtxThreadDetached                     0x08001757   Thumb Code    18  rtx_evr.o(.text)
    EvrRtxThreadJoin                         0x08001769   Thumb Code    18  rtx_evr.o(.text)
    EvrRtxThreadJoinPending                  0x0800177b   Thumb Code    18  rtx_evr.o(.text)
    EvrRtxThreadJoined                       0x0800178d   Thumb Code    18  rtx_evr.o(.text)
    EvrRtxThreadBlocked                      0x0800179f   Thumb Code    18  rtx_evr.o(.text)
    EvrRtxThreadUnblocked                    0x080017b1   Thumb Code    20  rtx_evr.o(.text)
    EvrRtxThreadPreempted                    0x080017c5   Thumb Code    48  rtx_evr.o(.text)
    EvrRtxThreadSwitched                     0x080017f5   Thumb Code    16  rtx_evr.o(.text)
    EvrRtxThreadExit                         0x08001805   Thumb Code    14  rtx_evr.o(.text)
    EvrRtxThreadTerminate                    0x08001813   Thumb Code    18  rtx_evr.o(.text)
    EvrRtxThreadDestroyed                    0x08001825   Thumb Code    18  rtx_evr.o(.text)
    EvrRtxThreadGetCount                     0x08001837   Thumb Code    18  rtx_evr.o(.text)
    EvrRtxThreadEnumerate                    0x08001849   Thumb Code    28  rtx_evr.o(.text)
    EvrRtxThreadFlagsError                   0x08001865   Thumb Code    20  rtx_evr.o(.text)
    EvrRtxThreadFlagsSet                     0x08001879   Thumb Code    18  rtx_evr.o(.text)
    EvrRtxThreadFlagsSetDone                 0x0800188b   Thumb Code    18  rtx_evr.o(.text)
    EvrRtxThreadFlagsClear                   0x0800189d   Thumb Code    18  rtx_evr.o(.text)
    EvrRtxThreadFlagsClearDone               0x080018af   Thumb Code    18  rtx_evr.o(.text)
    EvrRtxThreadFlagsGet                     0x080018c1   Thumb Code    18  rtx_evr.o(.text)
    EvrRtxThreadFlagsWait                    0x080018d3   Thumb Code    28  rtx_evr.o(.text)
    EvrRtxThreadFlagsWaitPending             0x080018ef   Thumb Code    28  rtx_evr.o(.text)
    EvrRtxThreadFlagsWaitTimeout             0x0800190b   Thumb Code    18  rtx_evr.o(.text)
    EvrRtxThreadFlagsWaitCompleted           0x0800191d   Thumb Code    28  rtx_evr.o(.text)
    EvrRtxThreadFlagsWaitNotCompleted        0x08001939   Thumb Code    20  rtx_evr.o(.text)
    EvrRtxDelayError                         0x0800194d   Thumb Code    18  rtx_evr.o(.text)
    EvrRtxDelay                              0x0800195f   Thumb Code    18  rtx_evr.o(.text)
    EvrRtxDelayUntil                         0x08001971   Thumb Code    18  rtx_evr.o(.text)
    EvrRtxDelayStarted                       0x08001983   Thumb Code    18  rtx_evr.o(.text)
    EvrRtxDelayUntilStarted                  0x08001995   Thumb Code    18  rtx_evr.o(.text)
    EvrRtxDelayCompleted                     0x080019a7   Thumb Code    18  rtx_evr.o(.text)
    EvrRtxTimerError                         0x080019b9   Thumb Code    20  rtx_evr.o(.text)
    EvrRtxTimerCallback                      0x080019cd   Thumb Code    18  rtx_evr.o(.text)
    EvrRtxTimerNew                           0x080019df   Thumb Code    26  rtx_evr.o(.text)
    EvrRtxTimerCreated                       0x080019f9   Thumb Code    20  rtx_evr.o(.text)
    EvrRtxTimerGetName                       0x08001a0d   Thumb Code    20  rtx_evr.o(.text)
    EvrRtxTimerStart                         0x08001a21   Thumb Code    20  rtx_evr.o(.text)
    EvrRtxTimerStarted                       0x08001a35   Thumb Code    18  rtx_evr.o(.text)
    EvrRtxTimerStop                          0x08001a47   Thumb Code    18  rtx_evr.o(.text)
    EvrRtxTimerStopped                       0x08001a59   Thumb Code    18  rtx_evr.o(.text)
    EvrRtxTimerIsRunning                     0x08001a6b   Thumb Code    20  rtx_evr.o(.text)
    EvrRtxTimerDelete                        0x08001a7f   Thumb Code    18  rtx_evr.o(.text)
    EvrRtxTimerDestroyed                     0x08001a91   Thumb Code    18  rtx_evr.o(.text)
    EvrRtxEventFlagsError                    0x08001aa3   Thumb Code    20  rtx_evr.o(.text)
    EvrRtxEventFlagsNew                      0x08001ab7   Thumb Code    16  rtx_evr.o(.text)
    EvrRtxEventFlagsCreated                  0x08001ac7   Thumb Code    20  rtx_evr.o(.text)
    EvrRtxEventFlagsGetName                  0x08001adb   Thumb Code    20  rtx_evr.o(.text)
    EvrRtxEventFlagsSet                      0x08001aef   Thumb Code    20  rtx_evr.o(.text)
    EvrRtxEventFlagsSetDone                  0x08001b03   Thumb Code    20  rtx_evr.o(.text)
    EvrRtxEventFlagsClear                    0x08001b17   Thumb Code    20  rtx_evr.o(.text)
    EvrRtxEventFlagsClearDone                0x08001b2b   Thumb Code    20  rtx_evr.o(.text)
    EvrRtxEventFlagsGet                      0x08001b3f   Thumb Code    20  rtx_evr.o(.text)
    EvrRtxEventFlagsWait                     0x08001b53   Thumb Code    28  rtx_evr.o(.text)
    EvrRtxEventFlagsWaitPending              0x08001b6f   Thumb Code    28  rtx_evr.o(.text)
    EvrRtxEventFlagsWaitTimeout              0x08001b8b   Thumb Code    18  rtx_evr.o(.text)
    EvrRtxEventFlagsWaitCompleted            0x08001b9d   Thumb Code    28  rtx_evr.o(.text)
    EvrRtxEventFlagsWaitNotCompleted         0x08001bb9   Thumb Code    28  rtx_evr.o(.text)
    EvrRtxEventFlagsDelete                   0x08001bd5   Thumb Code    48  rtx_evr.o(.text)
    EvrRtxEventFlagsDestroyed                0x08001c05   Thumb Code    16  rtx_evr.o(.text)
    EvrRtxMutexError                         0x08001c15   Thumb Code    20  rtx_evr.o(.text)
    EvrRtxMutexNew                           0x08001c29   Thumb Code    16  rtx_evr.o(.text)
    EvrRtxMutexCreated                       0x08001c39   Thumb Code    18  rtx_evr.o(.text)
    EvrRtxMutexGetName                       0x08001c4b   Thumb Code    20  rtx_evr.o(.text)
    EvrRtxMutexAcquire                       0x08001c5f   Thumb Code    20  rtx_evr.o(.text)
    EvrRtxMutexAcquirePending                0x08001c73   Thumb Code    20  rtx_evr.o(.text)
    EvrRtxMutexAcquireTimeout                0x08001c87   Thumb Code    18  rtx_evr.o(.text)
    EvrRtxMutexAcquired                      0x08001c99   Thumb Code    20  rtx_evr.o(.text)
    EvrRtxMutexNotAcquired                   0x08001cad   Thumb Code    18  rtx_evr.o(.text)
    EvrRtxMutexRelease                       0x08001cbf   Thumb Code    18  rtx_evr.o(.text)
    EvrRtxMutexReleased                      0x08001cd1   Thumb Code    20  rtx_evr.o(.text)
    EvrRtxMutexGetOwner                      0x08001ce5   Thumb Code    20  rtx_evr.o(.text)
    EvrRtxMutexDelete                        0x08001cf9   Thumb Code    18  rtx_evr.o(.text)
    EvrRtxMutexDestroyed                     0x08001d0b   Thumb Code    18  rtx_evr.o(.text)
    EvrRtxSemaphoreError                     0x08001d1d   Thumb Code    20  rtx_evr.o(.text)
    EvrRtxSemaphoreNew                       0x08001d31   Thumb Code    26  rtx_evr.o(.text)
    EvrRtxSemaphoreCreated                   0x08001d4b   Thumb Code    18  rtx_evr.o(.text)
    EvrRtxSemaphoreGetName                   0x08001d5d   Thumb Code    20  rtx_evr.o(.text)
    EvrRtxSemaphoreAcquire                   0x08001d71   Thumb Code    20  rtx_evr.o(.text)
    EvrRtxSemaphoreAcquirePending            0x08001d85   Thumb Code    20  rtx_evr.o(.text)
    EvrRtxSemaphoreAcquireTimeout            0x08001d99   Thumb Code    18  rtx_evr.o(.text)
    EvrRtxSemaphoreAcquired                  0x08001dab   Thumb Code    20  rtx_evr.o(.text)
    EvrRtxSemaphoreNotAcquired               0x08001dbf   Thumb Code    18  rtx_evr.o(.text)
    EvrRtxSemaphoreRelease                   0x08001dd1   Thumb Code    18  rtx_evr.o(.text)
    EvrRtxSemaphoreReleased                  0x08001de3   Thumb Code    20  rtx_evr.o(.text)
    EvrRtxSemaphoreGetCount                  0x08001df7   Thumb Code    20  rtx_evr.o(.text)
    EvrRtxSemaphoreDelete                    0x08001e0b   Thumb Code    18  rtx_evr.o(.text)
    EvrRtxSemaphoreDestroyed                 0x08001e1d   Thumb Code    18  rtx_evr.o(.text)
    EvrRtxMemoryPoolError                    0x08001e2f   Thumb Code    20  rtx_evr.o(.text)
    EvrRtxMemoryPoolNew                      0x08001e43   Thumb Code    26  rtx_evr.o(.text)
    EvrRtxMemoryPoolCreated                  0x08001e5d   Thumb Code    18  rtx_evr.o(.text)
    EvrRtxMemoryPoolGetName                  0x08001e6f   Thumb Code    20  rtx_evr.o(.text)
    EvrRtxMemoryPoolAlloc                    0x08001e83   Thumb Code    20  rtx_evr.o(.text)
    EvrRtxMemoryPoolAllocPending             0x08001e97   Thumb Code    20  rtx_evr.o(.text)
    EvrRtxMemoryPoolAllocTimeout             0x08001eab   Thumb Code    18  rtx_evr.o(.text)
    EvrRtxMemoryPoolAllocated                0x08001ebd   Thumb Code    20  rtx_evr.o(.text)
    EvrRtxMemoryPoolAllocFailed              0x08001ed1   Thumb Code    18  rtx_evr.o(.text)
    EvrRtxMemoryPoolFree                     0x08001ee3   Thumb Code    20  rtx_evr.o(.text)
    EvrRtxMemoryPoolDeallocated              0x08001ef7   Thumb Code    20  rtx_evr.o(.text)
    EvrRtxMemoryPoolFreeFailed               0x08001f0b   Thumb Code    20  rtx_evr.o(.text)
    EvrRtxMemoryPoolGetCapacity              0x08001f1f   Thumb Code    20  rtx_evr.o(.text)
    EvrRtxMemoryPoolGetBlockSize             0x08001f33   Thumb Code    20  rtx_evr.o(.text)
    EvrRtxMemoryPoolGetCount                 0x08001f47   Thumb Code    20  rtx_evr.o(.text)
    EvrRtxMemoryPoolGetSpace                 0x08001f5b   Thumb Code    20  rtx_evr.o(.text)
    EvrRtxMemoryPoolDelete                   0x08001f6f   Thumb Code    18  rtx_evr.o(.text)
    EvrRtxMemoryPoolDestroyed                0x08001f81   Thumb Code    18  rtx_evr.o(.text)
    EvrRtxMessageQueueError                  0x08001f93   Thumb Code    20  rtx_evr.o(.text)
    EvrRtxMessageQueueNew                    0x08001fa7   Thumb Code    26  rtx_evr.o(.text)
    EvrRtxMessageQueueCreated                0x08001fc1   Thumb Code    18  rtx_evr.o(.text)
    EvrRtxMessageQueueGetName                0x08001fd3   Thumb Code    20  rtx_evr.o(.text)
    EvrRtxMessageQueuePut                    0x08001fe7   Thumb Code    66  rtx_evr.o(.text)
    EvrRtxMessageQueuePutPending             0x08002029   Thumb Code    26  rtx_evr.o(.text)
    EvrRtxMessageQueuePutTimeout             0x08002043   Thumb Code    18  rtx_evr.o(.text)
    EvrRtxMessageQueueInsertPending          0x08002055   Thumb Code    20  rtx_evr.o(.text)
    EvrRtxMessageQueueInserted               0x08002069   Thumb Code    20  rtx_evr.o(.text)
    EvrRtxMessageQueueNotInserted            0x0800207d   Thumb Code    20  rtx_evr.o(.text)
    EvrRtxMessageQueueGet                    0x08002091   Thumb Code    26  rtx_evr.o(.text)
    EvrRtxMessageQueueGetPending             0x080020ab   Thumb Code    28  rtx_evr.o(.text)
    EvrRtxMessageQueueGetTimeout             0x080020c7   Thumb Code    18  rtx_evr.o(.text)
    EvrRtxMessageQueueRetrieved              0x080020d9   Thumb Code    20  rtx_evr.o(.text)
    EvrRtxMessageQueueNotRetrieved           0x080020ed   Thumb Code    20  rtx_evr.o(.text)
    EvrRtxMessageQueueGetCapacity            0x08002101   Thumb Code    20  rtx_evr.o(.text)
    EvrRtxMessageQueueGetMsgSize             0x08002115   Thumb Code    20  rtx_evr.o(.text)
    EvrRtxMessageQueueGetCount               0x08002129   Thumb Code    20  rtx_evr.o(.text)
    EvrRtxMessageQueueGetSpace               0x0800213d   Thumb Code    20  rtx_evr.o(.text)
    EvrRtxMessageQueueReset                  0x08002151   Thumb Code    18  rtx_evr.o(.text)
    EvrRtxMessageQueueResetDone              0x08002163   Thumb Code    18  rtx_evr.o(.text)
    EvrRtxMessageQueueDelete                 0x08002175   Thumb Code    18  rtx_evr.o(.text)
    EvrRtxMessageQueueDestroyed              0x08002187   Thumb Code    18  rtx_evr.o(.text)
    osRtxKernelErrorNotify                   0x08002769   Thumb Code    24  rtx_kernel.o(.text)
    osKernelInitialize                       0x08002781   Thumb Code    52  rtx_kernel.o(.text)
    osKernelGetInfo                          0x080027b5   Thumb Code    76  rtx_kernel.o(.text)
    osKernelGetState                         0x08002801   Thumb Code    44  rtx_kernel.o(.text)
    osKernelStart                            0x0800282d   Thumb Code    48  rtx_kernel.o(.text)
    osKernelLock                             0x0800285d   Thumb Code    48  rtx_kernel.o(.text)
    osKernelUnlock                           0x0800288d   Thumb Code    48  rtx_kernel.o(.text)
    osKernelRestoreLock                      0x080028bd   Thumb Code    54  rtx_kernel.o(.text)
    osKernelSuspend                          0x080028f3   Thumb Code    46  rtx_kernel.o(.text)
    osKernelResume                           0x08002921   Thumb Code    48  rtx_kernel.o(.text)
    osKernelGetTickCount                     0x08002951   Thumb Code    38  rtx_kernel.o(.text)
    osKernelGetTickFreq                      0x08002977   Thumb Code    38  rtx_kernel.o(.text)
    osKernelGetSysTimerCount                 0x0800299d   Thumb Code    92  rtx_kernel.o(.text)
    osKernelGetSysTimerFreq                  0x080029f9   Thumb Code    38  rtx_kernel.o(.text)
    osRtxKernelPreInit                       0x08002a51   Thumb Code    24  rtx_lib.o(.text)
    osRtxMemoryInit                          0x08002a69   Thumb Code   106  rtx_memory.o(.text)
    osRtxMemoryAlloc                         0x08002ad3   Thumb Code   238  rtx_memory.o(.text)
    osRtxMemoryFree                          0x08002bc1   Thumb Code   124  rtx_memory.o(.text)
    osRtxMemoryPoolInit                      0x08002c61   Thumb Code    88  rtx_mempool.o(.text)
    osRtxMemoryPoolAlloc                     0x08002cb9   Thumb Code    48  rtx_mempool.o(.text)
    osRtxMemoryPoolFree                      0x08002ce9   Thumb Code    68  rtx_mempool.o(.text)
    osMemoryPoolNew                          0x08003141   Thumb Code    70  rtx_mempool.o(.text)
    osMemoryPoolGetName                      0x08003187   Thumb Code    46  rtx_mempool.o(.text)
    osMemoryPoolAlloc                        0x080031b5   Thumb Code   144  rtx_mempool.o(.text)
    osMemoryPoolFree                         0x08003245   Thumb Code    58  rtx_mempool.o(.text)
    osMemoryPoolGetCapacity                  0x0800327f   Thumb Code    44  rtx_mempool.o(.text)
    osMemoryPoolGetBlockSize                 0x080032ab   Thumb Code    44  rtx_mempool.o(.text)
    osMemoryPoolGetCount                     0x080032d7   Thumb Code    44  rtx_mempool.o(.text)
    osMemoryPoolGetSpace                     0x08003303   Thumb Code    44  rtx_mempool.o(.text)
    osMemoryPoolDelete                       0x0800332f   Thumb Code    56  rtx_mempool.o(.text)
    osRtxMessageQueueTimerSetup              0x08003bd7   Thumb Code    36  rtx_msgqueue.o(.text)
    osMessageQueueNew                        0x08003bfb   Thumb Code    70  rtx_msgqueue.o(.text)
    osMessageQueueGetName                    0x08003c41   Thumb Code    46  rtx_msgqueue.o(.text)
    osMessageQueuePut                        0x08003c6f   Thumb Code    78  rtx_msgqueue.o(.text)
    osMessageQueueGet                        0x08003cbd   Thumb Code    78  rtx_msgqueue.o(.text)
    osMessageQueueGetCapacity                0x08003d0b   Thumb Code    44  rtx_msgqueue.o(.text)
    osMessageQueueGetMsgSize                 0x08003d37   Thumb Code    44  rtx_msgqueue.o(.text)
    osMessageQueueGetCount                   0x08003d63   Thumb Code    44  rtx_msgqueue.o(.text)
    osMessageQueueGetSpace                   0x08003d8f   Thumb Code    44  rtx_msgqueue.o(.text)
    osMessageQueueReset                      0x08003dbb   Thumb Code    56  rtx_msgqueue.o(.text)
    osMessageQueueDelete                     0x08003df3   Thumb Code    56  rtx_msgqueue.o(.text)
    osRtxMutexOwnerRelease                   0x08003f8d   Thumb Code   102  rtx_mutex.o(.text)
    osRtxMutexOwnerRestore                   0x08003ff3   Thumb Code    88  rtx_mutex.o(.text)
    osMutexNew                               0x0800444b   Thumb Code    62  rtx_mutex.o(.text)
    osMutexGetName                           0x08004489   Thumb Code    46  rtx_mutex.o(.text)
    osMutexAcquire                           0x080044b7   Thumb Code    62  rtx_mutex.o(.text)
    osMutexRelease                           0x080044f5   Thumb Code    56  rtx_mutex.o(.text)
    osMutexGetOwner                          0x0800452d   Thumb Code    46  rtx_mutex.o(.text)
    osMutexDelete                            0x0800455b   Thumb Code    56  rtx_mutex.o(.text)
    osSemaphoreNew                           0x080048d7   Thumb Code    70  rtx_semaphore.o(.text)
    osSemaphoreGetName                       0x0800491d   Thumb Code    46  rtx_semaphore.o(.text)
    osSemaphoreAcquire                       0x0800494b   Thumb Code   128  rtx_semaphore.o(.text)
    osSemaphoreRelease                       0x080049cb   Thumb Code    50  rtx_semaphore.o(.text)
    osSemaphoreGetCount                      0x080049fd   Thumb Code    44  rtx_semaphore.o(.text)
    osSemaphoreDelete                        0x08004a29   Thumb Code    56  rtx_semaphore.o(.text)
    osRtxTick_Handler                        0x08004b53   Thumb Code   152  rtx_system.o(.text)
    osRtxPendSV_Handler                      0x08004beb   Thumb Code   130  rtx_system.o(.text)
    osRtxPostProcess                         0x08004c6d   Thumb Code    50  rtx_system.o(.text)
    osRtxThreadListPut                       0x08004d43   Thumb Code    44  rtx_thread.o(.text)
    osRtxThreadListGet                       0x08004d6f   Thumb Code    26  rtx_thread.o(.text)
    osRtxThreadListRemove                    0x08004d99   Thumb Code    26  rtx_thread.o(.text)
    osRtxThreadListSort                      0x08004db3   Thumb Code    42  rtx_thread.o(.text)
    osRtxThreadReadyPut                      0x08004dfd   Thumb Code    18  rtx_thread.o(.text)
    osRtxThreadRegPtr                        0x08004ed7   Thumb Code    24  rtx_thread.o(.text)
    osRtxThreadDelayTick                     0x08004eef   Thumb Code   302  rtx_thread.o(.text)
    osRtxThreadSwitch                        0x08005057   Thumb Code    22  rtx_thread.o(.text)
    osRtxThreadDispatch                      0x0800506d   Thumb Code   104  rtx_thread.o(.text)
    osRtxThreadWaitExit                      0x080050d5   Thumb Code    54  rtx_thread.o(.text)
    osRtxThreadWaitEnter                     0x0800510b   Thumb Code    72  rtx_thread.o(.text)
    osRtxThreadStackCheck                    0x08005153   Thumb Code    28  rtx_thread.o(.text)
    osThreadExit                             0x080052d5   Thumb Code    28  rtx_thread.o(.text)
    osRtxThreadStartup                       0x08005cc7   Thumb Code    82  rtx_thread.o(.text)
    osThreadNew                              0x08005d19   Thumb Code    70  rtx_thread.o(.text)
    osThreadGetName                          0x08005d5f   Thumb Code    46  rtx_thread.o(.text)
    osThreadGetId                            0x08005d8d   Thumb Code    38  rtx_thread.o(.text)
    osThreadGetState                         0x08005db3   Thumb Code    50  rtx_thread.o(.text)
    osThreadGetStackSize                     0x08005de5   Thumb Code    46  rtx_thread.o(.text)
    osThreadGetStackSpace                    0x08005e13   Thumb Code    80  rtx_thread.o(.text)
    osThreadSetPriority                      0x08005e63   Thumb Code    62  rtx_thread.o(.text)
    osThreadGetPriority                      0x08005ea1   Thumb Code    50  rtx_thread.o(.text)
    osThreadYield                            0x08005ed3   Thumb Code    50  rtx_thread.o(.text)
    osThreadSuspend                          0x08005f05   Thumb Code    56  rtx_thread.o(.text)
    osThreadResume                           0x08005f3d   Thumb Code    56  rtx_thread.o(.text)
    osThreadDetach                           0x08005f75   Thumb Code    56  rtx_thread.o(.text)
    osThreadJoin                             0x08005fad   Thumb Code    56  rtx_thread.o(.text)
    osThreadTerminate                        0x08005fe5   Thumb Code    56  rtx_thread.o(.text)
    osThreadGetCount                         0x0800601d   Thumb Code    40  rtx_thread.o(.text)
    osThreadEnumerate                        0x08006045   Thumb Code    52  rtx_thread.o(.text)
    osThreadFlagsSet                         0x08006079   Thumb Code    58  rtx_thread.o(.text)
    osThreadFlagsClear                       0x080060b3   Thumb Code    56  rtx_thread.o(.text)
    osThreadFlagsGet                         0x080060eb   Thumb Code    40  rtx_thread.o(.text)
    osThreadFlagsWait                        0x08006113   Thumb Code    72  rtx_thread.o(.text)
    osRtxTimerSetup                          0x08006339   Thumb Code    24  rtx_timer.o(.text)
    osRtxTimerThread                         0x08006351   Thumb Code    44  rtx_timer.o(.text)
    osTimerNew                               0x080065c9   Thumb Code    76  rtx_timer.o(.text)
    osTimerGetName                           0x08006615   Thumb Code    58  rtx_timer.o(.text)
    osTimerStart                             0x0800664f   Thumb Code    62  rtx_timer.o(.text)
    osTimerStop                              0x0800668d   Thumb Code    56  rtx_timer.o(.text)
    osTimerIsRunning                         0x080066c5   Thumb Code    46  rtx_timer.o(.text)
    osTimerDelete                            0x080066f3   Thumb Code    56  rtx_timer.o(.text)
    OS_Tick_Setup                            0x08006759   Thumb Code    66  os_systick.o(.text)
    OS_Tick_Enable                           0x0800679b   Thumb Code    40  os_systick.o(.text)
    OS_Tick_Disable                          0x080067c3   Thumb Code    46  os_systick.o(.text)
    OS_Tick_AcknowledgeIRQ                   0x080067f1   Thumb Code     8  os_systick.o(.text)
    OS_Tick_GetIRQn                          0x080067f9   Thumb Code     6  os_systick.o(.text)
    OS_Tick_GetClock                         0x080067ff   Thumb Code     6  os_systick.o(.text)
    OS_Tick_GetInterval                      0x08006805   Thumb Code    10  os_systick.o(.text)
    OS_Tick_GetCount                         0x0800680f   Thumb Code    12  os_systick.o(.text)
    OS_Tick_GetOverflow                      0x0800681b   Thumb Code    12  os_systick.o(.text)
    osRtxIdleThread                          0x08006835   Thumb Code     4  rtx_config.o(.text)
    osRtxErrorNotify                         0x08006839   Thumb Code    32  rtx_config.o(.text)
    ETH_IRQHandler                           0x08007969   Thumb Code    72  emac_stm32f7xx.o(.text)
    EventRecorderTimerGetCount               0x08007a8f   Thumb Code     6  eventrecorder.o(.text)
    EventRecorderTimerSetup                  0x08007b4d   Thumb Code    28  eventrecorder.o(.text)
    EventRecorderTimerGetFreq                0x08007b69   Thumb Code     6  eventrecorder.o(.text)
    EventRecorderStart                       0x08007b6f   Thumb Code    44  eventrecorder.o(.text)
    EventRecorderEnable                      0x08007b9b   Thumb Code    88  eventrecorder.o(.text)
    EventRecorderInitialize                  0x08007bf3   Thumb Code   304  eventrecorder.o(.text)
    EventRecorderDisable                     0x08007d23   Thumb Code    88  eventrecorder.o(.text)
    EventRecorderStop                        0x08007d7b   Thumb Code    46  eventrecorder.o(.text)
    EventRecorderClockUpdate                 0x08007da9   Thumb Code    80  eventrecorder.o(.text)
    EventRecordData                          0x08007df9   Thumb Code   278  eventrecorder.o(.text)
    EventRecord2                             0x08007f0f   Thumb Code    70  eventrecorder.o(.text)
    EventRecord4                             0x08007f55   Thumb Code   118  eventrecorder.o(.text)
    HAL_MspInit                              0x08007fd9   Thumb Code     2  stm32f7xx_hal.o(.text)
    HAL_Init                                 0x0800801b   Thumb Code    44  stm32f7xx_hal.o(.text)
    HAL_MspDeInit                            0x08008047   Thumb Code     2  stm32f7xx_hal.o(.text)
    HAL_DeInit                               0x08008049   Thumb Code    64  stm32f7xx_hal.o(.text)
    HAL_IncTick                              0x08008089   Thumb Code    16  stm32f7xx_hal.o(.text)
    HAL_GetTickPrio                          0x0800809f   Thumb Code     6  stm32f7xx_hal.o(.text)
    HAL_SetTickFreq                          0x080080a5   Thumb Code    40  stm32f7xx_hal.o(.text)
    HAL_GetTickFreq                          0x080080cd   Thumb Code     6  stm32f7xx_hal.o(.text)
    HAL_Delay                                0x080080d3   Thumb Code    36  stm32f7xx_hal.o(.text)
    HAL_SuspendTick                          0x080080f7   Thumb Code    18  stm32f7xx_hal.o(.text)
    HAL_ResumeTick                           0x08008109   Thumb Code    18  stm32f7xx_hal.o(.text)
    HAL_GetHalVersion                        0x0800811b   Thumb Code     4  stm32f7xx_hal.o(.text)
    HAL_GetREVID                             0x0800811f   Thumb Code     8  stm32f7xx_hal.o(.text)
    HAL_GetDEVID                             0x08008127   Thumb Code    10  stm32f7xx_hal.o(.text)
    HAL_GetUIDw0                             0x08008131   Thumb Code     6  stm32f7xx_hal.o(.text)
    HAL_GetUIDw1                             0x08008137   Thumb Code     8  stm32f7xx_hal.o(.text)
    HAL_GetUIDw2                             0x0800813f   Thumb Code     8  stm32f7xx_hal.o(.text)
    HAL_DBGMCU_EnableDBGSleepMode            0x08008147   Thumb Code    14  stm32f7xx_hal.o(.text)
    HAL_DBGMCU_DisableDBGSleepMode           0x08008155   Thumb Code    14  stm32f7xx_hal.o(.text)
    HAL_DBGMCU_EnableDBGStopMode             0x08008163   Thumb Code    14  stm32f7xx_hal.o(.text)
    HAL_DBGMCU_DisableDBGStopMode            0x08008171   Thumb Code    14  stm32f7xx_hal.o(.text)
    HAL_DBGMCU_EnableDBGStandbyMode          0x0800817f   Thumb Code    14  stm32f7xx_hal.o(.text)
    HAL_DBGMCU_DisableDBGStandbyMode         0x0800818d   Thumb Code    14  stm32f7xx_hal.o(.text)
    HAL_EnableCompensationCell               0x0800819b   Thumb Code    14  stm32f7xx_hal.o(.text)
    HAL_DisableCompensationCell              0x080081a9   Thumb Code    14  stm32f7xx_hal.o(.text)
    HAL_EnableFMCMemorySwapping              0x080081b7   Thumb Code    18  stm32f7xx_hal.o(.text)
    HAL_DisableFMCMemorySwapping             0x080081c9   Thumb Code    18  stm32f7xx_hal.o(.text)
    HAL_EnableMemorySwappingBank             0x080081db   Thumb Code    18  stm32f7xx_hal.o(.text)
    HAL_DisableMemorySwappingBank            0x080081ed   Thumb Code    18  stm32f7xx_hal.o(.text)
    HAL_NVIC_SetPriorityGrouping             0x08008249   Thumb Code    36  stm32f7xx_hal_cortex.o(.text)
    HAL_NVIC_SetPriority                     0x0800826d   Thumb Code   124  stm32f7xx_hal_cortex.o(.text)
    HAL_NVIC_EnableIRQ                       0x080082e9   Thumb Code    40  stm32f7xx_hal_cortex.o(.text)
    HAL_NVIC_DisableIRQ                      0x08008311   Thumb Code    38  stm32f7xx_hal_cortex.o(.text)
    HAL_NVIC_SystemReset                     0x08008337   Thumb Code    40  stm32f7xx_hal_cortex.o(.text)
    HAL_SYSTICK_Config                       0x0800835f   Thumb Code    52  stm32f7xx_hal_cortex.o(.text)
    HAL_MPU_Disable                          0x08008393   Thumb Code    30  stm32f7xx_hal_cortex.o(.text)
    HAL_MPU_Enable                           0x080083b1   Thumb Code    36  stm32f7xx_hal_cortex.o(.text)
    HAL_MPU_ConfigRegion                     0x080083d5   Thumb Code    90  stm32f7xx_hal_cortex.o(.text)
    HAL_NVIC_GetPriorityGrouping             0x0800842f   Thumb Code     8  stm32f7xx_hal_cortex.o(.text)
    HAL_NVIC_GetPriority                     0x08008437   Thumb Code   138  stm32f7xx_hal_cortex.o(.text)
    HAL_NVIC_SetPendingIRQ                   0x080084c1   Thumb Code    32  stm32f7xx_hal_cortex.o(.text)
    HAL_NVIC_GetPendingIRQ                   0x080084e1   Thumb Code    46  stm32f7xx_hal_cortex.o(.text)
    HAL_NVIC_ClearPendingIRQ                 0x0800850f   Thumb Code    30  stm32f7xx_hal_cortex.o(.text)
    HAL_NVIC_GetActive                       0x0800852d   Thumb Code    46  stm32f7xx_hal_cortex.o(.text)
    HAL_SYSTICK_CLKSourceConfig              0x0800855b   Thumb Code    40  stm32f7xx_hal_cortex.o(.text)
    HAL_SYSTICK_Callback                     0x08008583   Thumb Code     2  stm32f7xx_hal_cortex.o(.text)
    HAL_SYSTICK_IRQHandler                   0x08008585   Thumb Code     8  stm32f7xx_hal_cortex.o(.text)
    HAL_GPIO_Init                            0x080085ad   Thumb Code   472  stm32f7xx_hal_gpio.o(.text)
    HAL_GPIO_DeInit                          0x08008785   Thumb Code   344  stm32f7xx_hal_gpio.o(.text)
    HAL_GPIO_ReadPin                         0x080088dd   Thumb Code    16  stm32f7xx_hal_gpio.o(.text)
    HAL_GPIO_WritePin                        0x080088ed   Thumb Code    12  stm32f7xx_hal_gpio.o(.text)
    HAL_GPIO_TogglePin                       0x080088f9   Thumb Code    20  stm32f7xx_hal_gpio.o(.text)
    HAL_GPIO_LockPin                         0x0800890d   Thumb Code    46  stm32f7xx_hal_gpio.o(.text)
    HAL_GPIO_EXTI_Callback                   0x0800893b   Thumb Code     2  stm32f7xx_hal_gpio.o(.text)
    HAL_GPIO_EXTI_IRQHandler                 0x0800893d   Thumb Code    28  stm32f7xx_hal_gpio.o(.text)
    HAL_PWREx_EnableBkUpReg                  0x0800898d   Thumb Code    66  stm32f7xx_hal_pwr_ex.o(.text)
    HAL_PWREx_DisableBkUpReg                 0x080089cf   Thumb Code    66  stm32f7xx_hal_pwr_ex.o(.text)
    HAL_PWREx_EnableFlashPowerDown           0x08008a11   Thumb Code    14  stm32f7xx_hal_pwr_ex.o(.text)
    HAL_PWREx_DisableFlashPowerDown          0x08008a1f   Thumb Code    14  stm32f7xx_hal_pwr_ex.o(.text)
    HAL_PWREx_EnableMainRegulatorLowVoltage  0x08008a2d   Thumb Code    14  stm32f7xx_hal_pwr_ex.o(.text)
    HAL_PWREx_DisableMainRegulatorLowVoltage 0x08008a3b   Thumb Code    14  stm32f7xx_hal_pwr_ex.o(.text)
    HAL_PWREx_EnableLowRegulatorLowVoltage   0x08008a49   Thumb Code    14  stm32f7xx_hal_pwr_ex.o(.text)
    HAL_PWREx_DisableLowRegulatorLowVoltage  0x08008a57   Thumb Code    14  stm32f7xx_hal_pwr_ex.o(.text)
    HAL_PWREx_EnableOverDrive                0x08008a65   Thumb Code   136  stm32f7xx_hal_pwr_ex.o(.text)
    HAL_PWREx_DisableOverDrive               0x08008aed   Thumb Code   136  stm32f7xx_hal_pwr_ex.o(.text)
    HAL_PWREx_EnterUnderDriveSTOPMode        0x08008b75   Thumb Code   152  stm32f7xx_hal_pwr_ex.o(.text)
    HAL_PWREx_GetVoltageRange                0x08008c0d   Thumb Code    10  stm32f7xx_hal_pwr_ex.o(.text)
    HAL_PWREx_ControlVoltageScaling          0x08008c17   Thumb Code   228  stm32f7xx_hal_pwr_ex.o(.text)
    HAL_RCC_DeInit                           0x08008d0d   Thumb Code   390  stm32f7xx_hal_rcc.o(.text)
    HAL_RCC_OscConfig                        0x08008e93   Thumb Code  1264  stm32f7xx_hal_rcc.o(.text)
    HAL_RCC_GetSysClockFreq                  0x08009383   Thumb Code   164  stm32f7xx_hal_rcc.o(.text)
    HAL_RCC_ClockConfig                      0x08009427   Thumb Code   420  stm32f7xx_hal_rcc.o(.text)
    HAL_RCC_MCOConfig                        0x080095cb   Thumb Code   170  stm32f7xx_hal_rcc.o(.text)
    HAL_RCC_EnableCSS                        0x08009675   Thumb Code    18  stm32f7xx_hal_rcc.o(.text)
    HAL_RCC_DisableCSS                       0x08009687   Thumb Code    18  stm32f7xx_hal_rcc.o(.text)
    HAL_RCC_GetHCLKFreq                      0x08009699   Thumb Code     6  stm32f7xx_hal_rcc.o(.text)
    HAL_RCC_GetPCLK1Freq                     0x0800969f   Thumb Code    22  stm32f7xx_hal_rcc.o(.text)
    HAL_RCC_GetPCLK2Freq                     0x080096b5   Thumb Code    22  stm32f7xx_hal_rcc.o(.text)
    HAL_RCC_GetOscConfig                     0x080096cb   Thumb Code   274  stm32f7xx_hal_rcc.o(.text)
    HAL_RCC_GetClockConfig                   0x080097dd   Thumb Code    58  stm32f7xx_hal_rcc.o(.text)
    HAL_RCC_CSSCallback                      0x08009817   Thumb Code     2  stm32f7xx_hal_rcc.o(.text)
    HAL_RCC_NMI_IRQHandler                   0x08009819   Thumb Code    30  stm32f7xx_hal_rcc.o(.text)
    Reset_Handler                            0x08009859   Thumb Code     8  startup_stm32f769xx.o(.text)
    NMI_Handler                              0x08009861   Thumb Code     2  startup_stm32f769xx.o(.text)
    HardFault_Handler                        0x08009863   Thumb Code     2  startup_stm32f769xx.o(.text)
    MemManage_Handler                        0x08009865   Thumb Code     2  startup_stm32f769xx.o(.text)
    BusFault_Handler                         0x08009867   Thumb Code     2  startup_stm32f769xx.o(.text)
    UsageFault_Handler                       0x08009869   Thumb Code     2  startup_stm32f769xx.o(.text)
    DebugMon_Handler                         0x0800986d   Thumb Code     2  startup_stm32f769xx.o(.text)
    ADC_IRQHandler                           0x08009873   Thumb Code     0  startup_stm32f769xx.o(.text)
    CAN1_RX0_IRQHandler                      0x08009873   Thumb Code     0  startup_stm32f769xx.o(.text)
    CAN1_RX1_IRQHandler                      0x08009873   Thumb Code     0  startup_stm32f769xx.o(.text)
    CAN1_SCE_IRQHandler                      0x08009873   Thumb Code     0  startup_stm32f769xx.o(.text)
    CAN1_TX_IRQHandler                       0x08009873   Thumb Code     0  startup_stm32f769xx.o(.text)
    CAN2_RX0_IRQHandler                      0x08009873   Thumb Code     0  startup_stm32f769xx.o(.text)
    CAN2_RX1_IRQHandler                      0x08009873   Thumb Code     0  startup_stm32f769xx.o(.text)
    CAN2_SCE_IRQHandler                      0x08009873   Thumb Code     0  startup_stm32f769xx.o(.text)
    CAN2_TX_IRQHandler                       0x08009873   Thumb Code     0  startup_stm32f769xx.o(.text)
    CAN3_RX0_IRQHandler                      0x08009873   Thumb Code     0  startup_stm32f769xx.o(.text)
    CAN3_RX1_IRQHandler                      0x08009873   Thumb Code     0  startup_stm32f769xx.o(.text)
    CAN3_SCE_IRQHandler                      0x08009873   Thumb Code     0  startup_stm32f769xx.o(.text)
    CAN3_TX_IRQHandler                       0x08009873   Thumb Code     0  startup_stm32f769xx.o(.text)
    CEC_IRQHandler                           0x08009873   Thumb Code     0  startup_stm32f769xx.o(.text)
    DCMI_IRQHandler                          0x08009873   Thumb Code     0  startup_stm32f769xx.o(.text)
    DFSDM1_FLT0_IRQHandler                   0x08009873   Thumb Code     0  startup_stm32f769xx.o(.text)
    DFSDM1_FLT1_IRQHandler                   0x08009873   Thumb Code     0  startup_stm32f769xx.o(.text)
    DFSDM1_FLT2_IRQHandler                   0x08009873   Thumb Code     0  startup_stm32f769xx.o(.text)
    DFSDM1_FLT3_IRQHandler                   0x08009873   Thumb Code     0  startup_stm32f769xx.o(.text)
    DMA1_Stream0_IRQHandler                  0x08009873   Thumb Code     0  startup_stm32f769xx.o(.text)
    DMA1_Stream1_IRQHandler                  0x08009873   Thumb Code     0  startup_stm32f769xx.o(.text)
    DMA1_Stream2_IRQHandler                  0x08009873   Thumb Code     0  startup_stm32f769xx.o(.text)
    DMA1_Stream3_IRQHandler                  0x08009873   Thumb Code     0  startup_stm32f769xx.o(.text)
    DMA1_Stream4_IRQHandler                  0x08009873   Thumb Code     0  startup_stm32f769xx.o(.text)
    DMA1_Stream5_IRQHandler                  0x08009873   Thumb Code     0  startup_stm32f769xx.o(.text)
    DMA1_Stream6_IRQHandler                  0x08009873   Thumb Code     0  startup_stm32f769xx.o(.text)
    DMA1_Stream7_IRQHandler                  0x08009873   Thumb Code     0  startup_stm32f769xx.o(.text)
    DMA2D_IRQHandler                         0x08009873   Thumb Code     0  startup_stm32f769xx.o(.text)
    DMA2_Stream0_IRQHandler                  0x08009873   Thumb Code     0  startup_stm32f769xx.o(.text)
    DMA2_Stream1_IRQHandler                  0x08009873   Thumb Code     0  startup_stm32f769xx.o(.text)
    DMA2_Stream2_IRQHandler                  0x08009873   Thumb Code     0  startup_stm32f769xx.o(.text)
    DMA2_Stream3_IRQHandler                  0x08009873   Thumb Code     0  startup_stm32f769xx.o(.text)
    DMA2_Stream4_IRQHandler                  0x08009873   Thumb Code     0  startup_stm32f769xx.o(.text)
    DMA2_Stream5_IRQHandler                  0x08009873   Thumb Code     0  startup_stm32f769xx.o(.text)
    DMA2_Stream6_IRQHandler                  0x08009873   Thumb Code     0  startup_stm32f769xx.o(.text)
    DMA2_Stream7_IRQHandler                  0x08009873   Thumb Code     0  startup_stm32f769xx.o(.text)
    DSI_IRQHandler                           0x08009873   Thumb Code     0  startup_stm32f769xx.o(.text)
    ETH_WKUP_IRQHandler                      0x08009873   Thumb Code     0  startup_stm32f769xx.o(.text)
    EXTI0_IRQHandler                         0x08009873   Thumb Code     0  startup_stm32f769xx.o(.text)
    EXTI15_10_IRQHandler                     0x08009873   Thumb Code     0  startup_stm32f769xx.o(.text)
    EXTI1_IRQHandler                         0x08009873   Thumb Code     0  startup_stm32f769xx.o(.text)
    EXTI2_IRQHandler                         0x08009873   Thumb Code     0  startup_stm32f769xx.o(.text)
    EXTI3_IRQHandler                         0x08009873   Thumb Code     0  startup_stm32f769xx.o(.text)
    EXTI4_IRQHandler                         0x08009873   Thumb Code     0  startup_stm32f769xx.o(.text)
    EXTI9_5_IRQHandler                       0x08009873   Thumb Code     0  startup_stm32f769xx.o(.text)
    FLASH_IRQHandler                         0x08009873   Thumb Code     0  startup_stm32f769xx.o(.text)
    FMC_IRQHandler                           0x08009873   Thumb Code     0  startup_stm32f769xx.o(.text)
    FPU_IRQHandler                           0x08009873   Thumb Code     0  startup_stm32f769xx.o(.text)
    I2C1_ER_IRQHandler                       0x08009873   Thumb Code     0  startup_stm32f769xx.o(.text)
    I2C1_EV_IRQHandler                       0x08009873   Thumb Code     0  startup_stm32f769xx.o(.text)
    I2C2_ER_IRQHandler                       0x08009873   Thumb Code     0  startup_stm32f769xx.o(.text)
    I2C2_EV_IRQHandler                       0x08009873   Thumb Code     0  startup_stm32f769xx.o(.text)
    I2C3_ER_IRQHandler                       0x08009873   Thumb Code     0  startup_stm32f769xx.o(.text)
    I2C3_EV_IRQHandler                       0x08009873   Thumb Code     0  startup_stm32f769xx.o(.text)
    I2C4_ER_IRQHandler                       0x08009873   Thumb Code     0  startup_stm32f769xx.o(.text)
    I2C4_EV_IRQHandler                       0x08009873   Thumb Code     0  startup_stm32f769xx.o(.text)
    JPEG_IRQHandler                          0x08009873   Thumb Code     0  startup_stm32f769xx.o(.text)
    LPTIM1_IRQHandler                        0x08009873   Thumb Code     0  startup_stm32f769xx.o(.text)
    LTDC_ER_IRQHandler                       0x08009873   Thumb Code     0  startup_stm32f769xx.o(.text)
    LTDC_IRQHandler                          0x08009873   Thumb Code     0  startup_stm32f769xx.o(.text)
    MDIOS_IRQHandler                         0x08009873   Thumb Code     0  startup_stm32f769xx.o(.text)
    OTG_FS_IRQHandler                        0x08009873   Thumb Code     0  startup_stm32f769xx.o(.text)
    OTG_FS_WKUP_IRQHandler                   0x08009873   Thumb Code     0  startup_stm32f769xx.o(.text)
    OTG_HS_EP1_IN_IRQHandler                 0x08009873   Thumb Code     0  startup_stm32f769xx.o(.text)
    OTG_HS_EP1_OUT_IRQHandler                0x08009873   Thumb Code     0  startup_stm32f769xx.o(.text)
    OTG_HS_IRQHandler                        0x08009873   Thumb Code     0  startup_stm32f769xx.o(.text)
    OTG_HS_WKUP_IRQHandler                   0x08009873   Thumb Code     0  startup_stm32f769xx.o(.text)
    PVD_IRQHandler                           0x08009873   Thumb Code     0  startup_stm32f769xx.o(.text)
    QUADSPI_IRQHandler                       0x08009873   Thumb Code     0  startup_stm32f769xx.o(.text)
    RCC_IRQHandler                           0x08009873   Thumb Code     0  startup_stm32f769xx.o(.text)
    RNG_IRQHandler                           0x08009873   Thumb Code     0  startup_stm32f769xx.o(.text)
    RTC_Alarm_IRQHandler                     0x08009873   Thumb Code     0  startup_stm32f769xx.o(.text)
    RTC_WKUP_IRQHandler                      0x08009873   Thumb Code     0  startup_stm32f769xx.o(.text)
    SAI1_IRQHandler                          0x08009873   Thumb Code     0  startup_stm32f769xx.o(.text)
    SAI2_IRQHandler                          0x08009873   Thumb Code     0  startup_stm32f769xx.o(.text)
    SDMMC1_IRQHandler                        0x08009873   Thumb Code     0  startup_stm32f769xx.o(.text)
    SDMMC2_IRQHandler                        0x08009873   Thumb Code     0  startup_stm32f769xx.o(.text)
    SPDIF_RX_IRQHandler                      0x08009873   Thumb Code     0  startup_stm32f769xx.o(.text)
    SPI1_IRQHandler                          0x08009873   Thumb Code     0  startup_stm32f769xx.o(.text)
    SPI2_IRQHandler                          0x08009873   Thumb Code     0  startup_stm32f769xx.o(.text)
    SPI3_IRQHandler                          0x08009873   Thumb Code     0  startup_stm32f769xx.o(.text)
    SPI4_IRQHandler                          0x08009873   Thumb Code     0  startup_stm32f769xx.o(.text)
    SPI5_IRQHandler                          0x08009873   Thumb Code     0  startup_stm32f769xx.o(.text)
    SPI6_IRQHandler                          0x08009873   Thumb Code     0  startup_stm32f769xx.o(.text)
    TAMP_STAMP_IRQHandler                    0x08009873   Thumb Code     0  startup_stm32f769xx.o(.text)
    TIM1_BRK_TIM9_IRQHandler                 0x08009873   Thumb Code     0  startup_stm32f769xx.o(.text)
    TIM1_CC_IRQHandler                       0x08009873   Thumb Code     0  startup_stm32f769xx.o(.text)
    TIM1_TRG_COM_TIM11_IRQHandler            0x08009873   Thumb Code     0  startup_stm32f769xx.o(.text)
    TIM1_UP_TIM10_IRQHandler                 0x08009873   Thumb Code     0  startup_stm32f769xx.o(.text)
    TIM2_IRQHandler                          0x08009873   Thumb Code     0  startup_stm32f769xx.o(.text)
    TIM3_IRQHandler                          0x08009873   Thumb Code     0  startup_stm32f769xx.o(.text)
    TIM4_IRQHandler                          0x08009873   Thumb Code     0  startup_stm32f769xx.o(.text)
    TIM5_IRQHandler                          0x08009873   Thumb Code     0  startup_stm32f769xx.o(.text)
    TIM6_DAC_IRQHandler                      0x08009873   Thumb Code     0  startup_stm32f769xx.o(.text)
    TIM7_IRQHandler                          0x08009873   Thumb Code     0  startup_stm32f769xx.o(.text)
    TIM8_BRK_TIM12_IRQHandler                0x08009873   Thumb Code     0  startup_stm32f769xx.o(.text)
    TIM8_CC_IRQHandler                       0x08009873   Thumb Code     0  startup_stm32f769xx.o(.text)
    TIM8_TRG_COM_TIM14_IRQHandler            0x08009873   Thumb Code     0  startup_stm32f769xx.o(.text)
    TIM8_UP_TIM13_IRQHandler                 0x08009873   Thumb Code     0  startup_stm32f769xx.o(.text)
    UART4_IRQHandler                         0x08009873   Thumb Code     0  startup_stm32f769xx.o(.text)
    UART5_IRQHandler                         0x08009873   Thumb Code     0  startup_stm32f769xx.o(.text)
    UART7_IRQHandler                         0x08009873   Thumb Code     0  startup_stm32f769xx.o(.text)
    UART8_IRQHandler                         0x08009873   Thumb Code     0  startup_stm32f769xx.o(.text)
    USART1_IRQHandler                        0x08009873   Thumb Code     0  startup_stm32f769xx.o(.text)
    USART2_IRQHandler                        0x08009873   Thumb Code     0  startup_stm32f769xx.o(.text)
    USART3_IRQHandler                        0x08009873   Thumb Code     0  startup_stm32f769xx.o(.text)
    USART6_IRQHandler                        0x08009873   Thumb Code     0  startup_stm32f769xx.o(.text)
    WWDG_IRQHandler                          0x08009873   Thumb Code     0  startup_stm32f769xx.o(.text)
    SystemInit                               0x0800987d   Thumb Code    14  system_stm32f7xx.o(.text)
    SystemCoreClockUpdate                    0x0800988b   Thumb Code   170  system_stm32f7xx.o(.text)
    netos_init                               0x08009979   Thumb Code    22  net_config.o(.text)
    netos_thread_create                      0x0800998f   Thumb Code    10  net_config.o(.text)
    netos_thread_delete                      0x08009999   Thumb Code     4  net_config.o(.text)
    netos_thread_id                          0x0800999d   Thumb Code     4  net_config.o(.text)
    netos_thread_pass                        0x080099a1   Thumb Code     4  net_config.o(.text)
    netos_timer_create                       0x080099a5   Thumb Code    14  net_config.o(.text)
    netos_timer_delete                       0x080099b3   Thumb Code     4  net_config.o(.text)
    netos_timer_start                        0x080099b7   Thumb Code    22  net_config.o(.text)
    netos_mutex_create                       0x080099cd   Thumb Code    16  net_config.o(.text)
    netos_mutex_delete                       0x080099dd   Thumb Code     4  net_config.o(.text)
    netos_lock                               0x080099e1   Thumb Code     8  net_config.o(.text)
    netos_unlock                             0x080099e9   Thumb Code     4  net_config.o(.text)
    netos_flag_wait                          0x080099ed   Thumb Code    24  net_config.o(.text)
    netos_flag_set                           0x08009a05   Thumb Code     4  net_config.o(.text)
    netos_flag_clear                         0x08009a09   Thumb Code     6  net_config.o(.text)
    netos_delay                              0x08009a0f   Thumb Code    14  net_config.o(.text)
    netif_create                             0x08009a1d   Thumb Code    46  net_config.o(.text)
    netif_delete                             0x08009a4b   Thumb Code    20  net_config.o(.text)
    netif_lock                               0x08009a5f   Thumb Code     8  net_config.o(.text)
    netif_unlock                             0x08009a67   Thumb Code     4  net_config.o(.text)
    netIGMP_Join                             0x08009a71   Thumb Code     4  net_config.o(.text)
    netIGMP_Leave                            0x08009a75   Thumb Code     4  net_config.o(.text)
    net_igmp_is_member                       0x08009a79   Thumb Code     4  net_config.o(.text)
    net_igmp_collect_mcast                   0x08009a7d   Thumb Code     4  net_config.o(.text)
    net_igmp_process                         0x08009a81   Thumb Code     2  net_config.o(.text)
    netDHCP_Enable                           0x08009a83   Thumb Code     4  net_config.o(.text)
    netDHCP_Disable                          0x08009a87   Thumb Code     4  net_config.o(.text)
    netDHCP_SetOption                        0x08009a8b   Thumb Code     4  net_config.o(.text)
    netDHCP6_Enable                          0x08009a8f   Thumb Code     4  net_config.o(.text)
    netDHCP6_Disable                         0x08009a93   Thumb Code     4  net_config.o(.text)
    netSNTPc_GetTime                         0x08009a97   Thumb Code     4  net_config.o(.text)
    netHTTPs_fopen                           0x08009a9b   Thumb Code     4  net_config.o(.text)
    netHTTPs_fclose                          0x08009a9f   Thumb Code     2  net_config.o(.text)
    netHTTPs_fread                           0x08009aa1   Thumb Code     4  net_config.o(.text)
    netHTTPs_fgets                           0x08009aa5   Thumb Code     4  net_config.o(.text)
    netHTTPs_fstat                           0x08009aa9   Thumb Code     2  net_config.o(.text)
    net_sys_error                            0x08009aab   Thumb Code     2  net_config.o(.text)
    net_evr_init                             0x08009ac5   Thumb Code   334  net_debug.o(.text)
    net_debug_init                           0x08009c13   Thumb Code     2  net_debug.o(.text)
    __aeabi_uldivmod                         0x08009c15   Thumb Code    98  uldiv.o(.text)
    __aeabi_memcpy                           0x08009c77   Thumb Code    36  memcpya.o(.text)
    __aeabi_memcpy4                          0x08009c77   Thumb Code     0  memcpya.o(.text)
    __aeabi_memcpy8                          0x08009c77   Thumb Code     0  memcpya.o(.text)
    __aeabi_memset                           0x08009c9b   Thumb Code    14  memseta.o(.text)
    __aeabi_memset4                          0x08009c9b   Thumb Code     0  memseta.o(.text)
    __aeabi_memset8                          0x08009c9b   Thumb Code     0  memseta.o(.text)
    __aeabi_memclr                           0x08009ca9   Thumb Code     4  memseta.o(.text)
    __aeabi_memclr4                          0x08009ca9   Thumb Code     0  memseta.o(.text)
    __aeabi_memclr8                          0x08009ca9   Thumb Code     0  memseta.o(.text)
    _memset$wrapper                          0x08009cad   Thumb Code    18  memseta.o(.text)
    strlen                                   0x08009cbf   Thumb Code    14  strlen.o(.text)
    strcmp                                   0x08009ccd   Thumb Code    28  strcmp.o(.text)
    memcmp                                   0x08009ce9   Thumb Code    26  memcmp.o(.text)
    strncmp                                  0x08009d03   Thumb Code    30  strncmp.o(.text)
    __0sscanf                                0x08009d21   Thumb Code    48  __0sscanf.o(.text)
    _scanf_int                               0x08009d59   Thumb Code   332  _scanf_int.o(.text)
    __aeabi_llsl                             0x08009ea5   Thumb Code    30  llshl.o(.text)
    _ll_shift_l                              0x08009ea5   Thumb Code     0  llshl.o(.text)
    __aeabi_llsr                             0x08009ec3   Thumb Code    32  llushr.o(.text)
    _ll_ushift_r                             0x08009ec3   Thumb Code     0  llushr.o(.text)
    _chval                                   0x08009ee3   Thumb Code    28  _chval.o(.text)
    __vfscanf_char                           0x08009f0d   Thumb Code    20  scanf_char.o(.text)
    _sgetc                                   0x08009f29   Thumb Code    30  _sgetc.o(.text)
    _sbackspace                              0x08009f47   Thumb Code    34  _sgetc.o(.text)
    __scatterload                            0x08009f69   Thumb Code    28  init.o(.text)
    __scatterload_rt2                        0x08009f69   Thumb Code     0  init.o(.text)
    isspace                                  0x08009f8d   Thumb Code    10  isspace_c.o(.text)
    __vfscanf                                0x08009f99   Thumb Code   810  _scanf.o(.text)
    __ctype_lookup                           0x0800a2c9   Thumb Code    34  ctype_c.o(.text)
    __decompress                             0x0800a2f1   Thumb Code     0  __dczerorl2.o(.text)
    __decompress1                            0x0800a2f1   Thumb Code    86  __dczerorl2.o(.text)
    __0sprintf$8                             0x0800a349   Thumb Code    34  printf8.o(i.__0sprintf$8)
    __1sprintf$8                             0x0800a349   Thumb Code     0  printf8.o(i.__0sprintf$8)
    __2sprintf                               0x0800a349   Thumb Code     0  printf8.o(i.__0sprintf$8)
    __scatterload_copy                       0x0800a371   Thumb Code    14  handlers.o(i.__scatterload_copy)
    __scatterload_null                       0x0800a37f   Thumb Code     2  handlers.o(i.__scatterload_null)
    __scatterload_zeroinit                   0x0800a381   Thumb Code    14  handlers.o(i.__scatterload_zeroinit)
    netCGI_Charset                           0x0800d4c9   Thumb Code     4  net_http_server.o(i.netCGI_Charset)
    netCGI_ContentType                       0x0800d4cd   Thumb Code     4  net_http_server.o(i.netCGI_ContentType)
    netCGI_CustomHeader                      0x0800d4d1   Thumb Code     4  net_http_server.o(i.netCGI_CustomHeader)
    netCGI_GetEnvVar                         0x0800d4d5   Thumb Code   104  net_http_server.o(i.netCGI_GetEnvVar)
    netCGI_Redirect                          0x0800d541   Thumb Code     4  net_http_server.o(i.netCGI_Redirect)
    netCGX_ContentType                       0x0800d545   Thumb Code     4  net_http_server.o(i.netCGX_ContentType)
    netCore_Thread                           0x0800d549   Thumb Code    90  net_sys.o(i.netCore_Thread)
    netETH_Notify                            0x0800d5ad   Thumb Code     2  net_eth.o(i.netETH_Notify)
    netETH_ReceiveRaw                        0x0800d5af   Thumb Code     2  net_eth.o(i.netETH_ReceiveRaw)
    netETH_Thread                            0x0800d5b1   Thumb Code   114  net_eth.o(i.netETH_Thread)
    netHTTPs_AcceptClient                    0x0800d623   Thumb Code     4  net_http_server.o(i.netHTTPs_AcceptClient)
    netHTTPs_CheckAccount                    0x0800d627   Thumb Code     4  net_http_server_auth.o(i.netHTTPs_CheckAccount)
    netHTTPs_FileAccess                      0x0800d62b   Thumb Code     4  net_http_server.o(i.netHTTPs_FileAccess)
    netIF_SetOption                          0x0800d631   Thumb Code   124  net_sys.o(i.netIF_SetOption)
    netIP_aton                               0x0800d6b5   Thumb Code    26  net_addr.o(i.netIP_aton)
    netInitialize                            0x0800d6d1   Thumb Code   156  net_sys.o(i.netInitialize)
    netMAC_aton                              0x0800d77d   Thumb Code   140  net_addr.o(i.netMAC_aton)
    net_addr4_aton                           0x0800d809   Thumb Code   124  net_addr.o(i.net_addr4_aton)
    net_addr4_to_mac                         0x0800d885   Thumb Code    30  net_addr.o(i.net_addr4_to_mac)
    net_addr6_aton                           0x0800d8a5   Thumb Code   230  net_addr.o(i.net_addr6_aton)
    net_addr6_comp                           0x0800d98b   Thumb Code    40  net_addr.o(i.net_addr6_comp)
    net_addr6_copy                           0x0800d9b3   Thumb Code    18  net_addr.o(i.net_addr6_copy)
    net_addr6_create                         0x0800d9c5   Thumb Code    70  net_addr.o(i.net_addr6_create)
    net_addr6_get_solicited                  0x0800da11   Thumb Code    34  net_addr.o(i.net_addr6_get_solicited)
    net_addr6_is_linklocal                   0x0800da39   Thumb Code    24  net_addr.o(i.net_addr6_is_linklocal)
    net_addr6_is_onlink                      0x0800da51   Thumb Code   110  net_addr.o(i.net_addr6_is_onlink)
    net_addr6_is_solicited                   0x0800dabf   Thumb Code    72  net_addr.o(i.net_addr6_is_solicited)
    net_addr6_is_unspec                      0x0800db07   Thumb Code    24  net_addr.o(i.net_addr6_is_unspec)
    net_addr6_to_mac                         0x0800db1f   Thumb Code    14  net_addr.o(i.net_addr6_to_mac)
    net_addr_find_route                      0x0800db2d   Thumb Code    26  net_addr.o(i.net_addr_find_route)
    net_addr_get_local                       0x0800db49   Thumb Code    26  net_addr.o(i.net_addr_get_local)
    net_addr_is_unspec                       0x0800db69   Thumb Code    34  net_addr.o(i.net_addr_is_unspec)
    net_arp_cache_add                        0x0800db8d   Thumb Code   276  net_arp.o(i.net_arp_cache_add)
    net_arp_cache_early                      0x0800dca9   Thumb Code   180  net_arp.o(i.net_arp_cache_early)
    net_arp_cache_find                       0x0800dd65   Thumb Code   224  net_arp.o(i.net_arp_cache_find)
    net_arp_cache_init                       0x0800de51   Thumb Code    64  net_arp.o(i.net_arp_cache_init)
    net_arp_cache_run                        0x0800de99   Thumb Code    22  net_arp.o(i.net_arp_cache_run)
    net_arp_cache_uninit                     0x0800deb5   Thumb Code    56  net_arp.o(i.net_arp_cache_uninit)
    net_arp_enqueue                          0x0800def5   Thumb Code   114  net_arp.o(i.net_arp_enqueue)
    net_arp_notify                           0x0800df6d   Thumb Code    32  net_arp.o(i.net_arp_notify)
    net_arp_process                          0x0800df8d   Thumb Code   536  net_arp.o(i.net_arp_process)
    net_atoi                                 0x0800e1b1   Thumb Code    66  net_common.o(i.net_atoi)
    net_base64_decode                        0x0800e1f5   Thumb Code   114  net_base64.o(i.net_base64_decode)
    net_chksum_buf                           0x0800e26d   Thumb Code    48  net_common.o(i.net_chksum_buf)
    net_crc_buf                              0x0800e29d   Thumb Code    30  net_common.o(i.net_crc_buf)
    net_eth_callback                         0x0800e2bb   Thumb Code    14  net_eth.o(i.net_eth_callback)
    net_eth_config_mcast                     0x0800e2c9   Thumb Code   104  net_eth.o(i.net_eth_config_mcast)
    net_eth_get_option                       0x0800e331   Thumb Code   234  net_eth.o(i.net_eth_get_option)
    net_eth_iface_init                       0x0800e41d   Thumb Code    22  net_eth.o(i.net_eth_iface_init)
    net_eth_iface_run                        0x0800e439   Thumb Code    22  net_eth.o(i.net_eth_iface_run)
    net_eth_iface_uninit                     0x0800e455   Thumb Code    22  net_eth.o(i.net_eth_iface_uninit)
    net_eth_output                           0x0800e471   Thumb Code   164  net_eth.o(i.net_eth_output)
    net_eth_send_frame                       0x0800e519   Thumb Code   462  net_eth.o(i.net_eth_send_frame)
    net_eth_set_option                       0x0800e6f9   Thumb Code   610  net_eth.o(i.net_eth_set_option)
    net_http_server_init                     0x0800e969   Thumb Code   212  net_http_server.o(i.net_http_server_init)
    net_http_server_run                      0x0800ea51   Thumb Code    30  net_http_server.o(i.net_http_server_run)
    net_http_server_uninit                   0x0800ea79   Thumb Code    98  net_http_server.o(i.net_http_server_uninit)
    net_icmp6_init                           0x0800eae9   Thumb Code    20  net_icmp6.o(i.net_icmp6_init)
    net_icmp6_process                        0x0800eb01   Thumb Code   542  net_icmp6.o(i.net_icmp6_process)
    net_icmp6_send                           0x0800ed39   Thumb Code   122  net_icmp6.o(i.net_icmp6_send)
    net_icmp6_send_echo                      0x0800edbd   Thumb Code    78  net_icmp6.o(i.net_icmp6_send_echo)
    net_icmp_init                            0x0800ee15   Thumb Code    20  net_icmp.o(i.net_icmp_init)
    net_icmp_process                         0x0800ee2d   Thumb Code   430  net_icmp.o(i.net_icmp_process)
    net_icmp_send_echo                       0x0800eff5   Thumb Code   142  net_icmp.o(i.net_icmp_send_echo)
    net_if_map_all                           0x0800f095   Thumb Code     6  net_sys.o(i.net_if_map_all)
    net_ip4_chk_frame                        0x0800f0a1   Thumb Code   372  net_ip4.o(i.net_ip4_chk_frame)
    net_ip4_chksum                           0x0800f22d   Thumb Code    44  net_ip4.o(i.net_ip4_chksum)
    net_ip4_chksum_buf                       0x0800f259   Thumb Code     6  net_ip4.o(i.net_ip4_chksum_buf)
    net_ip4_find_route                       0x0800f261   Thumb Code   104  net_ip4.o(i.net_ip4_find_route)
    net_ip4_frag_add                         0x0800f2e1   Thumb Code   284  net_ip4_frag.o(i.net_ip4_frag_add)
    net_ip4_frag_get                         0x0800f405   Thumb Code   168  net_ip4_frag.o(i.net_ip4_frag_get)
    net_ip4_frag_init                        0x0800f4b1   Thumb Code    12  net_ip4_frag.o(i.net_ip4_frag_init)
    net_ip4_frag_run                         0x0800f4c1   Thumb Code    50  net_ip4_frag.o(i.net_ip4_frag_run)
    net_ip4_frag_uninit                      0x0800f4fd   Thumb Code    12  net_ip4_frag.o(i.net_ip4_frag_uninit)
    net_ip4_get_local                        0x0800f50d   Thumb Code    40  net_ip4.o(i.net_ip4_get_local)
    net_ip4_init                             0x0800f539   Thumb Code    22  net_ip4.o(i.net_ip4_init)
    net_ip4_is_onlink                        0x0800f55d   Thumb Code    32  net_ip4.o(i.net_ip4_is_onlink)
    net_ip4_is_subcast                       0x0800f57d   Thumb Code    38  net_ip4.o(i.net_ip4_is_subcast)
    net_ip4_reass_frame                      0x0800f5a3   Thumb Code    14  net_ip4.o(i.net_ip4_reass_frame)
    net_ip4_send_frame                       0x0800f5b1   Thumb Code   340  net_ip4.o(i.net_ip4_send_frame)
    net_ip4_tx_offl_hl                       0x0800f715   Thumb Code    42  net_ip4.o(i.net_ip4_tx_offl_hl)
    net_ip4_uninit                           0x0800f741   Thumb Code    22  net_ip4.o(i.net_ip4_uninit)
    net_ip6_chk_frame                        0x0800f761   Thumb Code   236  net_ip6.o(i.net_ip6_chk_frame)
    net_ip6_chksum                           0x0800f861   Thumb Code    50  net_ip6.o(i.net_ip6_chksum)
    net_ip6_collect_mcast                    0x0800f895   Thumb Code   118  net_ip6.o(i.net_ip6_collect_mcast)
    net_ip6_find_route                       0x0800f911   Thumb Code    56  net_ip6.o(i.net_ip6_find_route)
    net_ip6_get_local                        0x0800f959   Thumb Code    74  net_ip6.o(i.net_ip6_get_local)
    net_ip6_init                             0x0800f9ad   Thumb Code    20  net_ip6.o(i.net_ip6_init)
    net_ip6_send_frame                       0x0800f9c9   Thumb Code   192  net_ip6.o(i.net_ip6_send_frame)
    net_ip6_tx_offl_hl                       0x0800fa95   Thumb Code    30  net_ip6.o(i.net_ip6_tx_offl_hl)
    net_ip6_uninit                           0x0800fab5   Thumb Code    20  net_ip6.o(i.net_ip6_uninit)
    net_itoa                                 0x0800fad1   Thumb Code     8  net_common.o(i.net_itoa)
    net_itoa_n0                              0x0800fad9   Thumb Code     6  net_common.o(i.net_itoa_n0)
    net_loop_iface_init                      0x0800fae1   Thumb Code    40  net_loopback.o(i.net_loop_iface_init)
    net_loop_iface_run                       0x0800fb11   Thumb Code   176  net_loopback.o(i.net_loop_iface_run)
    net_loop_iface_uninit                    0x0800fbcd   Thumb Code    32  net_loopback.o(i.net_loop_iface_uninit)
    net_loop_send_frame                      0x0800fbf5   Thumb Code   104  net_loopback.o(i.net_loop_send_frame)
    net_mem_alloc                            0x0800fc65   Thumb Code   178  net_mem.o(i.net_mem_alloc)
    net_mem_avail                            0x0800fd25   Thumb Code    22  net_mem.o(i.net_mem_avail)
    net_mem_free                             0x0800fd41   Thumb Code   152  net_mem.o(i.net_mem_free)
    net_mem_init                             0x0800fde5   Thumb Code    98  net_mem.o(i.net_mem_init)
    net_mem_shrink                           0x0800fe55   Thumb Code    62  net_mem.o(i.net_mem_shrink)
    net_nbns_client_init                     0x0800fe9d   Thumb Code    82  net_nbns_client.o(i.net_nbns_client_init)
    net_nbns_client_uninit                   0x0800ff01   Thumb Code    42  net_nbns_client.o(i.net_nbns_client_uninit)
    net_ndp_cache_find                       0x0800ff39   Thumb Code   438  net_ndp.o(i.net_ndp_cache_find)
    net_ndp_cache_refresh                    0x080100fd   Thumb Code   112  net_ndp.o(i.net_ndp_cache_refresh)
    net_ndp_enqueue                          0x08010175   Thumb Code   108  net_ndp.o(i.net_ndp_enqueue)
    net_ndp_process                          0x080101e5   Thumb Code   872  net_ndp.o(i.net_ndp_process)
    net_path                                 0x08010559   Thumb Code    52  net_sys.o(i.net_path)
    net_ping_client_init                     0x08010591   Thumb Code    22  net_ping_core.o(i.net_ping_client_init)
    net_ping_client_run                      0x080105b1   Thumb Code   110  net_ping_core.o(i.net_ping_client_run)
    net_ping_client_uninit                   0x08010631   Thumb Code    24  net_ping_core.o(i.net_ping_client_uninit)
    net_rand32                               0x08010651   Thumb Code    18  net_sys.o(i.net_rand32)
    net_strcasecmp                           0x0801066d   Thumb Code    46  net_common.o(i.net_strcasecmp)
    net_strchr                               0x0801069b   Thumb Code    22  net_common.o(i.net_strchr)
    net_strcmp                               0x080106b1   Thumb Code    26  net_common.o(i.net_strcmp)
    net_strcpy                               0x080106cb   Thumb Code    18  net_common.o(i.net_strcpy)
    net_strnchr                              0x080106dd   Thumb Code    28  net_common.o(i.net_strnchr)
    net_strncpy                              0x080106f9   Thumb Code    26  net_common.o(i.net_strncpy)
    net_strtoupper                           0x08010713   Thumb Code    32  net_common.o(i.net_strtoupper)
    net_sys_lock                             0x08010735   Thumb Code     8  net_sys.o(i.net_sys_lock)
    net_sys_resume                           0x08010741   Thumb Code    22  net_sys.o(i.net_sys_resume)
    net_sys_tick                             0x08010759   Thumb Code    16  net_sys.o(i.net_sys_tick)
    net_sys_unlock                           0x0801076d   Thumb Code     8  net_sys.o(i.net_sys_unlock)
    net_sys_wakeup                           0x08010779   Thumb Code    26  net_sys.o(i.net_sys_wakeup)
    net_tcp_abort                            0x08010799   Thumb Code   122  net_tcp.o(i.net_tcp_abort)
    net_tcp_close                            0x0801081d   Thumb Code   218  net_tcp.o(i.net_tcp_close)
    net_tcp_get_buf                          0x08010901   Thumb Code    46  net_tcp.o(i.net_tcp_get_buf)
    net_tcp_get_mss                          0x08010931   Thumb Code    34  net_tcp.o(i.net_tcp_get_mss)
    net_tcp_get_socket                       0x08010959   Thumb Code   104  net_tcp.o(i.net_tcp_get_socket)
    net_tcp_get_state                        0x080109c9   Thumb Code    40  net_tcp.o(i.net_tcp_get_state)
    net_tcp_listen                           0x080109f5   Thumb Code   168  net_tcp.o(i.net_tcp_listen)
    net_tcp_process                          0x08010aa5   Thumb Code  1956  net_tcp.o(i.net_tcp_process)
    net_tcp_send                             0x0801124d   Thumb Code   336  net_tcp.o(i.net_tcp_send)
    net_tcp_set_option                       0x080113a9   Thumb Code   288  net_tcp.o(i.net_tcp_set_option)
    net_tcp_socket_init                      0x080114d5   Thumb Code    30  net_tcp.o(i.net_tcp_socket_init)
    net_tcp_socket_run                       0x080114fd   Thumb Code   938  net_tcp.o(i.net_tcp_socket_run)
    net_tcp_socket_uninit                    0x080118bd   Thumb Code    30  net_tcp.o(i.net_tcp_socket_uninit)
    net_udp_get_buf                          0x080118e5   Thumb Code    46  net_udp.o(i.net_udp_get_buf)
    net_udp_get_socket                       0x08011915   Thumb Code   102  net_udp.o(i.net_udp_get_socket)
    net_udp_open                             0x08011985   Thumb Code   160  net_udp.o(i.net_udp_open)
    net_udp_process                          0x08011a31   Thumb Code   322  net_udp.o(i.net_udp_process)
    net_udp_send_if                          0x08011b89   Thumb Code   540  net_udp.o(i.net_udp_send_if)
    net_udp_socket_init                      0x08011db5   Thumb Code    30  net_udp.o(i.net_udp_socket_init)
    net_udp_socket_uninit                    0x08011dd9   Thumb Code    28  net_udp.o(i.net_udp_socket_uninit)
    net_ultoa                                0x08011dfd   Thumb Code     8  net_common.o(i.net_ultoa)
    net_xtoul                                0x08011e05   Thumb Code    76  net_common.o(i.net_xtoul)
    app_main_attr                            0x0801295c   Data          36  http_server.o(.constdata)
    imageLastModified                        0x08012980   Data           4  web.o(.constdata)
    irqRtxLib                                0x0801f818   Data           1  irq_armv7m.o(.constdata)
    irqRtxLibRef                             0x0801f87c   Data           4  rtx_lib.o(.constdata)
    osRtxUserSVC                             0x0801f880   Data           4  rtx_lib.o(.constdata)
    Driver_ETH_PHY0                          0x0801f888   Data          32  phy_lan8742a.o(.constdata)
    Driver_ETH_MAC0                          0x0801f8f8   Data          68  emac_stm32f7xx.o(.constdata)
    EventRecorderInfo                        0x0801f93c   Data          24  eventrecorder.o(.constdata)
    AHBPrescTable                            0x0801f954   Data          16  system_stm32f7xx.o(.constdata)
    APBPrescTable                            0x0801f964   Data           8  system_stm32f7xx.o(.constdata)
    net_sys_config                           0x0801f9f4   Data          28  net_config.o(.constdata)
    net_eth0_if_config                       0x0801fa58   Data          44  net_config.o(.constdata)
    net_eth_list                             0x0801faa4   Data           8  net_config.o(.constdata)
    net_if_list_lan                          0x0801faac   Data           8  net_config.o(.constdata)
    net_if_list_all                          0x0801fab4   Data           8  net_config.o(.constdata)
    net_if_inet_def                          0x0801fabc   Data           8  net_config.o(.constdata)
    net_if_link_def                          0x0801fac4   Data           8  net_config.o(.constdata)
    net_arp_list                             0x0801facc   Data           8  net_config.o(.constdata)
    net_icmp_list                            0x0801fad4   Data           8  net_config.o(.constdata)
    net_ndp_list                             0x0801fadc   Data           4  net_config.o(.constdata)
    net_icmp6_list                           0x0801fae0   Data           4  net_config.o(.constdata)
    net_ip4_frag_config                      0x0801fae4   Data           8  net_config.o(.constdata)
    net_udp_config                           0x0801faec   Data          12  net_config.o(.constdata)
    net_tcp_config                           0x0801faf8   Data          24  net_config.o(.constdata)
    net_http_config                          0x0801fb10   Data          52  net_config.o(.constdata)
    net_sys_fn_uninit                        0x0801fb8c   Data          40  net_config.o(.constdata)
    netif_getopt_func                        0x0801fbb4   Data          16  net_config.o(.constdata)
    netif_setopt_func                        0x0801fbc4   Data          16  net_config.o(.constdata)
    net_loop_if_config                       0x0801fbd4   Data          44  net_loopback.o(.constdata)
    net_http_auth_basic_func                 0x0801fd10   Data          24  net_http_server_auth.o(.constdata)
    net_ping_payload                         0x0801fd28   Data          18  net_ping_core.o(.constdata)
    net_addr_unspec                          0x0801fd3a   Data          16  net_addr.o(.constdata)
    net_addr_bcast                           0x0801fd4a   Data           6  net_addr.o(.constdata)
    net_addr4_loopback                       0x0801fd50   Data           4  net_ip4.o(.constdata)
    net_addr6_all_nodes                      0x0801fd54   Data          16  net_ip6.o(.constdata)
    net_addr6_loopback                       0x0801fd64   Data          16  net_ip6.o(.constdata)
    net_http_error                           0x0801fd74   Data          24  net_http_server_err.o(.constdata)
    net_lib_version                          0x0801fe1c   Data           4  net_version.o(.constdata)
    network_ip4ip6_debug_v7.15.0             0x0801fe1c   Data           4  net_version.o(.constdata)
    __ctype_categories                       0x0801fe20   Data          64  ctype_c.o(.constdata)
    osRtxConfig                              0x08020158   Data         112  rtx_lib.o(.rodata)
    os_cb_sections                           0x080201c8   Data          56  rtx_lib.o(.rodata)
    Region$$Table$$Base                      0x08020200   Number         0  anon$$obj.o(Region$$Table)
    Region$$Table$$Limit                     0x08020230   Number         0  anon$$obj.o(Region$$Table)
    .bss.os.msgqueue.cb$$Base                0x20028044   Number         0  rtx_lib.o(.bss.os.msgqueue.cb)
    .bss.os.msgqueue.cb$$Limit               0x20028078   Number         0  rtx_lib.o(.bss.os.msgqueue.cb)
    .bss.os.mutex.cb$$Base                   0x200280c8   Number         0  net_config.o(.bss.os.mutex.cb)
    .bss.os.mutex.cb$$Limit                  0x20028100   Number         0  net_config.o(.bss.os.mutex.cb)
    .bss.os.semaphore.cb$$Base               0x20028100   Number         0  net_config.o(.bss.os.semaphore.cb)
    .bss.os.semaphore.cb$$Limit              0x20028110   Number         0  net_config.o(.bss.os.semaphore.cb)
    .bss.os.thread.cb$$Base                  0x20028110   Number         0  rtx_lib.o(.bss.os.thread.cb)
    .bss.os.thread.cb$$Limit                 0x20028220   Number         0  net_config.o(.bss.os.thread.cb)
    .bss.os.timer.cb$$Base                   0x20028620   Number         0  net_config.o(.bss.os.timer.cb)
    .bss.os.timer.cb$$Limit                  0x20028640   Number         0  net_config.o(.bss.os.timer.cb)
    canciones                                0x20028640   Data          50  http_server_cgi.o(.data)
    opciones                                 0x20028674   Data          32  http_server_cgi.o(.data)
    uwTick                                   0x2002869c   Data           4  stm32f7xx_hal.o(.data)
    uwTickPrio                               0x200286a0   Data           4  stm32f7xx_hal.o(.data)
    uwTickFreq                               0x200286a4   Data           1  stm32f7xx_hal.o(.data)
    SystemCoreClock                          0x200286a8   Data           4  system_stm32f7xx.o(.data)
    net_eth0_icmp_control                    0x200286c4   Data           1  net_icmp.o(.data)
    osRtxInfo                                0x200286e8   Data         164  rtx_kernel.o(.data.os)
    app_main_stk                             0x20028790   Data        1024  http_server.o(.bss)
    net_eth0_if_control                      0x2002c790   Data         160  net_eth.o(.bss)
    net_eth0_arp_control                     0x2002c830   Data          24  net_arp.o(.bss)
    net_http_control                         0x2002c8e8   Data          20  net_http_server.o(.bss)
    net_ping_control                         0x2002c8fc   Data          44  net_ping_core.o(.bss)
    net_sys_control                          0x2002c938   Data          28  net_sys.o(.bss)
    net_dbg_buf                              0x2002c960   Data          36  net_sys.o(.bss)
    __initial_sp                             0x2002cdf8   Data           0  startup_stm32f769xx.o(STACK)



==============================================================================

Memory Map of the image

  Image Entry point : 0x080001f9

  Load Region LR_IROM1 (Base: 0x08000000, Size: 0x000289bc, Max: 0x00200000, ABSOLUTE, COMPRESSED[0x00020374])

    Execution Region ER_IROM1 (Exec base: 0x08000000, Load base: 0x08000000, Size: 0x00020230, Max: 0x00200000, ABSOLUTE)

    Exec Addr    Load Addr    Size         Type   Attr      Idx    E Section Name        Object

    0x08000000   0x08000000   0x000001f8   Data   RO         1191    RESET               startup_stm32f769xx.o
    0x080001f8   0x080001f8   0x00000000   Code   RO         2256  * .ARM.Collect$$$$00000000  mc_w.l(entry.o)
    0x080001f8   0x080001f8   0x00000004   Code   RO         2540    .ARM.Collect$$$$00000001  mc_w.l(entry2.o)
    0x080001fc   0x080001fc   0x00000004   Code   RO         2543    .ARM.Collect$$$$00000004  mc_w.l(entry5.o)
    0x08000200   0x08000200   0x00000000   Code   RO         2545    .ARM.Collect$$$$00000008  mc_w.l(entry7b.o)
    0x08000200   0x08000200   0x00000000   Code   RO         2547    .ARM.Collect$$$$0000000A  mc_w.l(entry8b.o)
    0x08000200   0x08000200   0x00000008   Code   RO         2548    .ARM.Collect$$$$0000000B  mc_w.l(entry9a.o)
    0x08000208   0x08000208   0x00000004   Code   RO         2555    .ARM.Collect$$$$0000000E  mc_w.l(entry12b.o)
    0x0800020c   0x0800020c   0x00000000   Code   RO         2550    .ARM.Collect$$$$0000000F  mc_w.l(entry10a.o)
    0x0800020c   0x0800020c   0x00000000   Code   RO         2552    .ARM.Collect$$$$00000011  mc_w.l(entry11a.o)
    0x0800020c   0x0800020c   0x00000004   Code   RO         2541    .ARM.Collect$$$$00002712  mc_w.l(entry2.o)
    0x08000210   0x08000210   0x00000148   Code   RO          482    .emb_text           rtx_mempool.o
    0x08000358   0x08000358   0x00000148   Code   RO          513    .emb_text           rtx_msgqueue.o
    0x080004a0   0x080004a0   0x00000148   Code   RO          578    .emb_text           rtx_semaphore.o
    0x080005e8   0x080005e8   0x00000148   Code   RO          609    .emb_text           rtx_system.o
    0x08000730   0x08000730   0x00000148   Code   RO          643    .emb_text           rtx_thread.o
    0x08000878   0x08000878   0x00000084   Code   RO          830    .emb_text           eventrecorder.o
    0x080008fc   0x080008fc   0x0000000a   Code   RO            4    .text               http_server.o
    0x08000906   0x08000906   0x00000002   PAD
    0x08000908   0x08000908   0x00000694   Code   RO          151    .text               http_server_cgi.o
    0x08000f9c   0x08000f9c   0x00000088   Code   RO          176    .text               web.o
    0x08001024   0x08001024   0x000001f4   Code   RO          197    .text               main.o
    0x08001218   0x08001218   0x00000094   Code   RO          227    .text               irq_armv7m.o
    0x080012ac   0x080012ac   0x0000011c   Code   RO          235    .text               rtx_delay.o
    0x080013c8   0x080013c8   0x00000dd8   Code   RO          333    .text               rtx_evr.o
    0x080021a0   0x080021a0   0x000008b0   Code   RO          361    .text               rtx_kernel.o
    0x08002a50   0x08002a50   0x00000018   Code   RO          409    .text               rtx_lib.o
    0x08002a68   0x08002a68   0x000001de   Code   RO          452    .text               rtx_memory.o
    0x08002c46   0x08002c46   0x00000002   PAD
    0x08002c48   0x08002c48   0x000007a4   Code   RO          483    .text               rtx_mempool.o
    0x080033ec   0x080033ec   0x00000b88   Code   RO          514    .text               rtx_msgqueue.o
    0x08003f74   0x08003f74   0x00000644   Code   RO          548    .text               rtx_mutex.o
    0x080045b8   0x080045b8   0x00000532   Code   RO          579    .text               rtx_semaphore.o
    0x08004aea   0x08004aea   0x00000002   PAD
    0x08004aec   0x08004aec   0x000001bc   Code   RO          610    .text               rtx_system.o
    0x08004ca8   0x08004ca8   0x00001578   Code   RO          644    .text               rtx_thread.o
    0x08006220   0x08006220   0x00000538   Code   RO          678    .text               rtx_timer.o
    0x08006758   0x08006758   0x000000dc   Code   RO          708    .text               os_systick.o
    0x08006834   0x08006834   0x00000024   Code   RO          734    .text               rtx_config.o
    0x08006858   0x08006858   0x00000224   Code   RO          755    .text               phy_lan8742a.o
    0x08006a7c   0x08006a7c   0x00000f44   Code   RO          785    .text               emac_stm32f7xx.o
    0x080079c0   0x080079c0   0x00000618   Code   RO          831    .text               eventrecorder.o
    0x08007fd8   0x08007fd8   0x00000250   Code   RO          869    .text               stm32f7xx_hal.o
    0x08008228   0x08008228   0x00000384   Code   RO          947    .text               stm32f7xx_hal_cortex.o
    0x080085ac   0x080085ac   0x000003e0   Code   RO         1024    .text               stm32f7xx_hal_gpio.o
    0x0800898c   0x0800898c   0x00000380   Code   RO         1072    .text               stm32f7xx_hal_pwr_ex.o
    0x08008d0c   0x08008d0c   0x00000b4c   Code   RO         1096    .text               stm32f7xx_hal_rcc.o
    0x08009858   0x08009858   0x00000024   Code   RO         1192    .text               startup_stm32f769xx.o
    0x0800987c   0x0800987c   0x000000d0   Code   RO         1199    .text               system_stm32f7xx.o
    0x0800994c   0x0800994c   0x00000178   Code   RO         1227    .text               net_config.o
    0x08009ac4   0x08009ac4   0x00000150   Code   RO         1276    .text               net_debug.o
    0x08009c14   0x08009c14   0x00000062   Code   RO         2259    .text               mc_w.l(uldiv.o)
    0x08009c76   0x08009c76   0x00000024   Code   RO         2261    .text               mc_w.l(memcpya.o)
    0x08009c9a   0x08009c9a   0x00000024   Code   RO         2263    .text               mc_w.l(memseta.o)
    0x08009cbe   0x08009cbe   0x0000000e   Code   RO         2265    .text               mc_w.l(strlen.o)
    0x08009ccc   0x08009ccc   0x0000001c   Code   RO         2267    .text               mc_w.l(strcmp.o)
    0x08009ce8   0x08009ce8   0x0000001a   Code   RO         2269    .text               mc_w.l(memcmp.o)
    0x08009d02   0x08009d02   0x0000001e   Code   RO         2271    .text               mc_w.l(strncmp.o)
    0x08009d20   0x08009d20   0x00000038   Code   RO         2536    .text               mc_w.l(__0sscanf.o)
    0x08009d58   0x08009d58   0x0000014c   Code   RO         2538    .text               mc_w.l(_scanf_int.o)
    0x08009ea4   0x08009ea4   0x0000001e   Code   RO         2561    .text               mc_w.l(llshl.o)
    0x08009ec2   0x08009ec2   0x00000020   Code   RO         2563    .text               mc_w.l(llushr.o)
    0x08009ee2   0x08009ee2   0x0000001c   Code   RO         2565    .text               mc_w.l(_chval.o)
    0x08009efe   0x08009efe   0x00000002   PAD
    0x08009f00   0x08009f00   0x00000028   Code   RO         2567    .text               mc_w.l(scanf_char.o)
    0x08009f28   0x08009f28   0x00000040   Code   RO         2569    .text               mc_w.l(_sgetc.o)
    0x08009f68   0x08009f68   0x00000024   Code   RO         2582    .text               mc_w.l(init.o)
    0x08009f8c   0x08009f8c   0x0000000a   Code   RO         2587    .text               mc_w.l(isspace_c.o)
    0x08009f96   0x08009f96   0x00000002   PAD
    0x08009f98   0x08009f98   0x00000330   Code   RO         2589    .text               mc_w.l(_scanf.o)
    0x0800a2c8   0x0800a2c8   0x00000028   Code   RO         2594    .text               mc_w.l(ctype_c.o)
    0x0800a2f0   0x0800a2f0   0x00000056   Code   RO         2604    .text               mc_w.l(__dczerorl2.o)
    0x0800a346   0x0800a346   0x00000002   PAD
    0x0800a348   0x0800a348   0x00000028   Code   RO         2484    i.__0sprintf$8      mc_w.l(printf8.o)
    0x0800a370   0x0800a370   0x0000000e   Code   RO         2598    i.__scatterload_copy  mc_w.l(handlers.o)
    0x0800a37e   0x0800a37e   0x00000002   Code   RO         2599    i.__scatterload_null  mc_w.l(handlers.o)
    0x0800a380   0x0800a380   0x0000000e   Code   RO         2600    i.__scatterload_zeroinit  mc_w.l(handlers.o)
    0x0800a38e   0x0800a38e   0x00000002   PAD
    0x0800a390   0x0800a390   0x00000404   Code   RO         2489    i._printf_core      mc_w.l(printf8.o)
    0x0800a794   0x0800a794   0x00000024   Code   RO         2490    i._printf_post_padding  mc_w.l(printf8.o)
    0x0800a7b8   0x0800a7b8   0x0000002e   Code   RO         2491    i._printf_pre_padding  mc_w.l(printf8.o)
    0x0800a7e6   0x0800a7e6   0x0000000a   Code   RO         2493    i._sputc            mc_w.l(printf8.o)
    0x0800a7f0   0x0800a7f0   0x00000054   Code   RO         1682    i.add_server_id     Net_Dbg_CM3_L.lib(net_http_server.o)
    0x0800a844   0x0800a844   0x0000005c   Code   RO         1362    i.arp_cache_alloc   Net_Dbg_CM3_L.lib(net_arp.o)
    0x0800a8a0   0x0800a8a0   0x00000170   Code   RO         1363    i.arp_cache_run     Net_Dbg_CM3_L.lib(net_arp.o)
    0x0800aa10   0x0800aa10   0x00000038   Code   RO         1364    i.arp_is_cacheable  Net_Dbg_CM3_L.lib(net_arp.o)
    0x0800aa48   0x0800aa48   0x00000088   Code   RO         1365    i.arp_probe_run     Net_Dbg_CM3_L.lib(net_arp.o)
    0x0800aad0   0x0800aad0   0x000000d8   Code   RO         1367    i.arp_proc_response  Net_Dbg_CM3_L.lib(net_arp.o)
    0x0800aba8   0x0800aba8   0x0000001a   Code   RO         1368    i.arp_que_free      Net_Dbg_CM3_L.lib(net_arp.o)
    0x0800abc2   0x0800abc2   0x00000002   PAD
    0x0800abc4   0x0800abc4   0x000000a0   Code   RO         1369    i.arp_send_reply    Net_Dbg_CM3_L.lib(net_arp.o)
    0x0800ac64   0x0800ac64   0x000000d0   Code   RO         1370    i.arp_send_request  Net_Dbg_CM3_L.lib(net_arp.o)
    0x0800ad34   0x0800ad34   0x00000068   Code   RO         1371    i.arp_sender_valid  Net_Dbg_CM3_L.lib(net_arp.o)
    0x0800ad9c   0x0800ad9c   0x0000018c   Code   RO         1683    i.chk_post_req      Net_Dbg_CM3_L.lib(net_http_server.o)
    0x0800af28   0x0800af28   0x00000028   Code   RO         2170    i.crc32_8bit        Net_Dbg_CM3_L.lib(net_common.o)
    0x0800af50   0x0800af50   0x0000009a   Code   RO         1306    i.eth_check_link    Net_Dbg_CM3_L.lib(net_eth.o)
    0x0800afea   0x0800afea   0x00000002   PAD
    0x0800afec   0x0800afec   0x00000020   Code   RO         1307    i.eth_if_map        Net_Dbg_CM3_L.lib(net_eth.o)
    0x0800b00c   0x0800b00c   0x00000304   Code   RO         1308    i.eth_iface_init    Net_Dbg_CM3_L.lib(net_eth.o)
    0x0800b310   0x0800b310   0x00000290   Code   RO         1309    i.eth_iface_run     Net_Dbg_CM3_L.lib(net_eth.o)
    0x0800b5a0   0x0800b5a0   0x0000007c   Code   RO         1310    i.eth_iface_uninit  Net_Dbg_CM3_L.lib(net_eth.o)
    0x0800b61c   0x0800b61c   0x00000008   Code   RO         1311    i.eth_lock          Net_Dbg_CM3_L.lib(net_eth.o)
    0x0800b624   0x0800b624   0x0000001c   Code   RO         1312    i.eth_mtu_limit     Net_Dbg_CM3_L.lib(net_eth.o)
    0x0800b640   0x0800b640   0x00000048   Code   RO         1313    i.eth_opt_len       Net_Dbg_CM3_L.lib(net_eth.o)
    0x0800b688   0x0800b688   0x00000088   Code   RO         1314    i.eth_receive       Net_Dbg_CM3_L.lib(net_eth.o)
    0x0800b710   0x0800b710   0x00000008   Code   RO         1315    i.eth_unlock        Net_Dbg_CM3_L.lib(net_eth.o)
    0x0800b718   0x0800b718   0x0000007c   Code   RO         1446    i.frag_map_session  Net_Dbg_CM3_L.lib(net_ip4_frag.o)
    0x0800b794   0x0800b794   0x00000028   Code   RO         1684    i.get_next_field    Net_Dbg_CM3_L.lib(net_http_server.o)
    0x0800b7bc   0x0800b7bc   0x00000032   Code   RO         1685    i.get_next_par      Net_Dbg_CM3_L.lib(net_http_server.o)
    0x0800b7ee   0x0800b7ee   0x00000022   Code   RO         1686    i.hex2byte          Net_Dbg_CM3_L.lib(net_http_server.o)
    0x0800b810   0x0800b810   0x0000036c   Code   RO         1687    i.http_add_header   Net_Dbg_CM3_L.lib(net_http_server.o)
    0x0800bb7c   0x0800bb7c   0x00000050   Code   RO         1807    i.http_auth_basic_add  Net_Dbg_CM3_L.lib(net_http_server_auth.o)
    0x0800bbcc   0x0800bbcc   0x00000090   Code   RO         1808    i.http_auth_basic_parse  Net_Dbg_CM3_L.lib(net_http_server_auth.o)
    0x0800bc5c   0x0800bc5c   0x00000002   Code   RO         1814    i.http_auth_dummy   Net_Dbg_CM3_L.lib(net_http_server_auth.o)
    0x0800bc5e   0x0800bc5e   0x00000002   PAD
    0x0800bc60   0x0800bc60   0x00000024   Code   RO         1815    i.http_auth_init    Net_Dbg_CM3_L.lib(net_http_server_auth.o)
    0x0800bc84   0x0800bc84   0x000001cc   Code   RO         1688    i.http_error_msg    Net_Dbg_CM3_L.lib(net_http_server.o)
    0x0800be50   0x0800be50   0x00000078   Code   RO         1689    i.http_get_ftype    Net_Dbg_CM3_L.lib(net_http_server.o)
    0x0800bec8   0x0800bec8   0x0000005e   Code   RO         1690    i.http_kill_session  Net_Dbg_CM3_L.lib(net_http_server.o)
    0x0800bf26   0x0800bf26   0x00000002   PAD
    0x0800bf28   0x0800bf28   0x000002a8   Code   RO         1691    i.http_listener     Net_Dbg_CM3_L.lib(net_http_server.o)
    0x0800c1d0   0x0800c1d0   0x00000184   Code   RO         1692    i.http_open_file    Net_Dbg_CM3_L.lib(net_http_server.o)
    0x0800c354   0x0800c354   0x0000011c   Code   RO         1693    i.http_parse_header  Net_Dbg_CM3_L.lib(net_http_server.o)
    0x0800c470   0x0800c470   0x000001a8   Code   RO         1694    i.http_proc_multipart  Net_Dbg_CM3_L.lib(net_http_server.o)
    0x0800c618   0x0800c618   0x00000138   Code   RO         1695    i.http_proc_post    Net_Dbg_CM3_L.lib(net_http_server.o)
    0x0800c750   0x0800c750   0x00000468   Code   RO         1696    i.http_server_run   Net_Dbg_CM3_L.lib(net_http_server.o)
    0x0800cbb8   0x0800cbb8   0x00000060   Code   RO         1697    i.http_server_start  Net_Dbg_CM3_L.lib(net_http_server.o)
    0x0800cc18   0x0800cc18   0x00000020   Code   RO         1699    i.http_strcpy       Net_Dbg_CM3_L.lib(net_http_server.o)
    0x0800cc38   0x0800cc38   0x000000ac   Code   RO         1700    i.http_to_utc       Net_Dbg_CM3_L.lib(net_http_server.o)
    0x0800cce4   0x0800cce4   0x0000001a   Code   RO         2171    i.i2str             Net_Dbg_CM3_L.lib(net_common.o)
    0x0800ccfe   0x0800ccfe   0x0000000c   Code   RO         2048    i.ip4_get_chksum    Net_Dbg_CM3_L.lib(net_ip4.o)
    0x0800cd0a   0x0800cd0a   0x00000028   Code   RO         2049    i.ip4_get_mtu       Net_Dbg_CM3_L.lib(net_ip4.o)
    0x0800cd32   0x0800cd32   0x00000002   PAD
    0x0800cd34   0x0800cd34   0x0000000c   Code   RO         2147    i.mem_lock          Net_Dbg_CM3_L.lib(net_mem.o)
    0x0800cd40   0x0800cd40   0x0000000c   Code   RO         2148    i.mem_unlock        Net_Dbg_CM3_L.lib(net_mem.o)
    0x0800cd4c   0x0800cd4c   0x000001a4   Code   RO         1668    i.nbns_listener     Net_Dbg_CM3_L.lib(net_nbns_client.o)
    0x0800cef0   0x0800cef0   0x00000120   Code   RO         1978    i.ndp_cache_add     Net_Dbg_CM3_L.lib(net_ndp.o)
    0x0800d010   0x0800d010   0x00000072   Code   RO         1979    i.ndp_cache_alloc   Net_Dbg_CM3_L.lib(net_ndp.o)
    0x0800d082   0x0800d082   0x00000002   PAD
    0x0800d084   0x0800d084   0x00000078   Code   RO         1980    i.ndp_cache_delete  Net_Dbg_CM3_L.lib(net_ndp.o)
    0x0800d0fc   0x0800d0fc   0x0000002c   Code   RO         1982    i.ndp_check_frame   Net_Dbg_CM3_L.lib(net_ndp.o)
    0x0800d128   0x0800d128   0x00000012   Code   RO         1983    i.ndp_next_opt      Net_Dbg_CM3_L.lib(net_ndp.o)
    0x0800d13a   0x0800d13a   0x00000002   PAD
    0x0800d13c   0x0800d13c   0x000000e4   Code   RO         1984    i.ndp_prefix_add    Net_Dbg_CM3_L.lib(net_ndp.o)
    0x0800d220   0x0800d220   0x000000fc   Code   RO         1987    i.ndp_proc_response  Net_Dbg_CM3_L.lib(net_ndp.o)
    0x0800d31c   0x0800d31c   0x0000001a   Code   RO         1988    i.ndp_que_free      Net_Dbg_CM3_L.lib(net_ndp.o)
    0x0800d336   0x0800d336   0x00000002   PAD
    0x0800d338   0x0800d338   0x00000038   Code   RO         1989    i.ndp_router_remove  Net_Dbg_CM3_L.lib(net_ndp.o)
    0x0800d370   0x0800d370   0x0000009c   Code   RO         1990    i.ndp_send_reply    Net_Dbg_CM3_L.lib(net_ndp.o)
    0x0800d40c   0x0800d40c   0x000000bc   Code   RO         1991    i.ndp_send_request  Net_Dbg_CM3_L.lib(net_ndp.o)
    0x0800d4c8   0x0800d4c8   0x00000004   Code   RO         1701    i.netCGI_Charset    Net_Dbg_CM3_L.lib(net_http_server.o)
    0x0800d4cc   0x0800d4cc   0x00000004   Code   RO         1702    i.netCGI_ContentType  Net_Dbg_CM3_L.lib(net_http_server.o)
    0x0800d4d0   0x0800d4d0   0x00000004   Code   RO         1703    i.netCGI_CustomHeader  Net_Dbg_CM3_L.lib(net_http_server.o)
    0x0800d4d4   0x0800d4d4   0x0000006c   Code   RO         1704    i.netCGI_GetEnvVar  Net_Dbg_CM3_L.lib(net_http_server.o)
    0x0800d540   0x0800d540   0x00000004   Code   RO         1707    i.netCGI_Redirect   Net_Dbg_CM3_L.lib(net_http_server.o)
    0x0800d544   0x0800d544   0x00000004   Code   RO         1709    i.netCGX_ContentType  Net_Dbg_CM3_L.lib(net_http_server.o)
    0x0800d548   0x0800d548   0x00000064   Code   RO         1861    i.netCore_Thread    Net_Dbg_CM3_L.lib(net_sys.o)
    0x0800d5ac   0x0800d5ac   0x00000002   Code   RO         1316    i.netETH_Notify     Net_Dbg_CM3_L.lib(net_eth.o)
    0x0800d5ae   0x0800d5ae   0x00000002   Code   RO         1317    i.netETH_ReceiveRaw  Net_Dbg_CM3_L.lib(net_eth.o)
    0x0800d5b0   0x0800d5b0   0x00000072   Code   RO         1319    i.netETH_Thread     Net_Dbg_CM3_L.lib(net_eth.o)
    0x0800d622   0x0800d622   0x00000004   Code   RO         1710    i.netHTTPs_AcceptClient  Net_Dbg_CM3_L.lib(net_http_server.o)
    0x0800d626   0x0800d626   0x00000004   Code   RO         1816    i.netHTTPs_CheckAccount  Net_Dbg_CM3_L.lib(net_http_server_auth.o)
    0x0800d62a   0x0800d62a   0x00000004   Code   RO         1712    i.netHTTPs_FileAccess  Net_Dbg_CM3_L.lib(net_http_server.o)
    0x0800d62e   0x0800d62e   0x00000002   PAD
    0x0800d630   0x0800d630   0x00000084   Code   RO         1864    i.netIF_SetOption   Net_Dbg_CM3_L.lib(net_sys.o)
    0x0800d6b4   0x0800d6b4   0x0000001a   Code   RO         1914    i.netIP_aton        Net_Dbg_CM3_L.lib(net_addr.o)
    0x0800d6ce   0x0800d6ce   0x00000002   PAD
    0x0800d6d0   0x0800d6d0   0x000000ac   Code   RO         1865    i.netInitialize     Net_Dbg_CM3_L.lib(net_sys.o)
    0x0800d77c   0x0800d77c   0x0000008c   Code   RO         1916    i.netMAC_aton       Net_Dbg_CM3_L.lib(net_addr.o)
    0x0800d808   0x0800d808   0x0000007c   Code   RO         1918    i.net_addr4_aton    Net_Dbg_CM3_L.lib(net_addr.o)
    0x0800d884   0x0800d884   0x0000001e   Code   RO         1920    i.net_addr4_to_mac  Net_Dbg_CM3_L.lib(net_addr.o)
    0x0800d8a2   0x0800d8a2   0x00000002   PAD
    0x0800d8a4   0x0800d8a4   0x000000e6   Code   RO         1921    i.net_addr6_aton    Net_Dbg_CM3_L.lib(net_addr.o)
    0x0800d98a   0x0800d98a   0x00000028   Code   RO         1922    i.net_addr6_comp    Net_Dbg_CM3_L.lib(net_addr.o)
    0x0800d9b2   0x0800d9b2   0x00000012   Code   RO         1923    i.net_addr6_copy    Net_Dbg_CM3_L.lib(net_addr.o)
    0x0800d9c4   0x0800d9c4   0x0000004c   Code   RO         1924    i.net_addr6_create  Net_Dbg_CM3_L.lib(net_addr.o)
    0x0800da10   0x0800da10   0x00000028   Code   RO         1925    i.net_addr6_get_solicited  Net_Dbg_CM3_L.lib(net_addr.o)
    0x0800da38   0x0800da38   0x00000018   Code   RO         1926    i.net_addr6_is_linklocal  Net_Dbg_CM3_L.lib(net_addr.o)
    0x0800da50   0x0800da50   0x0000006e   Code   RO         1927    i.net_addr6_is_onlink  Net_Dbg_CM3_L.lib(net_addr.o)
    0x0800dabe   0x0800dabe   0x00000048   Code   RO         1928    i.net_addr6_is_solicited  Net_Dbg_CM3_L.lib(net_addr.o)
    0x0800db06   0x0800db06   0x00000018   Code   RO         1929    i.net_addr6_is_unspec  Net_Dbg_CM3_L.lib(net_addr.o)
    0x0800db1e   0x0800db1e   0x0000000e   Code   RO         1931    i.net_addr6_to_mac  Net_Dbg_CM3_L.lib(net_addr.o)
    0x0800db2c   0x0800db2c   0x0000001a   Code   RO         1934    i.net_addr_find_route  Net_Dbg_CM3_L.lib(net_addr.o)
    0x0800db46   0x0800db46   0x00000002   PAD
    0x0800db48   0x0800db48   0x00000020   Code   RO         1936    i.net_addr_get_local  Net_Dbg_CM3_L.lib(net_addr.o)
    0x0800db68   0x0800db68   0x00000022   Code   RO         1937    i.net_addr_is_unspec  Net_Dbg_CM3_L.lib(net_addr.o)
    0x0800db8a   0x0800db8a   0x00000002   PAD
    0x0800db8c   0x0800db8c   0x0000011c   Code   RO         1379    i.net_arp_cache_add  Net_Dbg_CM3_L.lib(net_arp.o)
    0x0800dca8   0x0800dca8   0x000000bc   Code   RO         1380    i.net_arp_cache_early  Net_Dbg_CM3_L.lib(net_arp.o)
    0x0800dd64   0x0800dd64   0x000000ec   Code   RO         1381    i.net_arp_cache_find  Net_Dbg_CM3_L.lib(net_arp.o)
    0x0800de50   0x0800de50   0x00000048   Code   RO         1382    i.net_arp_cache_init  Net_Dbg_CM3_L.lib(net_arp.o)
    0x0800de98   0x0800de98   0x0000001c   Code   RO         1383    i.net_arp_cache_run  Net_Dbg_CM3_L.lib(net_arp.o)
    0x0800deb4   0x0800deb4   0x00000040   Code   RO         1384    i.net_arp_cache_uninit  Net_Dbg_CM3_L.lib(net_arp.o)
    0x0800def4   0x0800def4   0x00000078   Code   RO         1385    i.net_arp_enqueue   Net_Dbg_CM3_L.lib(net_arp.o)
    0x0800df6c   0x0800df6c   0x00000020   Code   RO         1387    i.net_arp_notify    Net_Dbg_CM3_L.lib(net_arp.o)
    0x0800df8c   0x0800df8c   0x00000224   Code   RO         1389    i.net_arp_process   Net_Dbg_CM3_L.lib(net_arp.o)
    0x0800e1b0   0x0800e1b0   0x00000042   Code   RO         2172    i.net_atoi          Net_Dbg_CM3_L.lib(net_common.o)
    0x0800e1f2   0x0800e1f2   0x00000002   PAD
    0x0800e1f4   0x0800e1f4   0x00000078   Code   RO         2238    i.net_base64_decode  Net_Dbg_CM3_L.lib(net_base64.o)
    0x0800e26c   0x0800e26c   0x00000030   Code   RO         2174    i.net_chksum_buf    Net_Dbg_CM3_L.lib(net_common.o)
    0x0800e29c   0x0800e29c   0x0000001e   Code   RO         2175    i.net_crc_buf       Net_Dbg_CM3_L.lib(net_common.o)
    0x0800e2ba   0x0800e2ba   0x0000000e   Code   RO         1320    i.net_eth_callback  Net_Dbg_CM3_L.lib(net_eth.o)
    0x0800e2c8   0x0800e2c8   0x00000068   Code   RO         1321    i.net_eth_config_mcast  Net_Dbg_CM3_L.lib(net_eth.o)
    0x0800e330   0x0800e330   0x000000ea   Code   RO         1323    i.net_eth_get_option  Net_Dbg_CM3_L.lib(net_eth.o)
    0x0800e41a   0x0800e41a   0x00000002   PAD
    0x0800e41c   0x0800e41c   0x0000001c   Code   RO         1324    i.net_eth_iface_init  Net_Dbg_CM3_L.lib(net_eth.o)
    0x0800e438   0x0800e438   0x0000001c   Code   RO         1325    i.net_eth_iface_run  Net_Dbg_CM3_L.lib(net_eth.o)
    0x0800e454   0x0800e454   0x0000001c   Code   RO         1326    i.net_eth_iface_uninit  Net_Dbg_CM3_L.lib(net_eth.o)
    0x0800e470   0x0800e470   0x000000a8   Code   RO         1327    i.net_eth_output    Net_Dbg_CM3_L.lib(net_eth.o)
    0x0800e518   0x0800e518   0x000001e0   Code   RO         1328    i.net_eth_send_frame  Net_Dbg_CM3_L.lib(net_eth.o)
    0x0800e6f8   0x0800e6f8   0x00000270   Code   RO         1329    i.net_eth_set_option  Net_Dbg_CM3_L.lib(net_eth.o)
    0x0800e968   0x0800e968   0x000000e8   Code   RO         1731    i.net_http_server_init  Net_Dbg_CM3_L.lib(net_http_server.o)
    0x0800ea50   0x0800ea50   0x00000028   Code   RO         1732    i.net_http_server_run  Net_Dbg_CM3_L.lib(net_http_server.o)
    0x0800ea78   0x0800ea78   0x00000070   Code   RO         1733    i.net_http_server_uninit  Net_Dbg_CM3_L.lib(net_http_server.o)
    0x0800eae8   0x0800eae8   0x00000018   Code   RO         2120    i.net_icmp6_init    Net_Dbg_CM3_L.lib(net_icmp6.o)
    0x0800eb00   0x0800eb00   0x00000238   Code   RO         2121    i.net_icmp6_process  Net_Dbg_CM3_L.lib(net_icmp6.o)
    0x0800ed38   0x0800ed38   0x00000084   Code   RO         2122    i.net_icmp6_send    Net_Dbg_CM3_L.lib(net_icmp6.o)
    0x0800edbc   0x0800edbc   0x00000058   Code   RO         2123    i.net_icmp6_send_echo  Net_Dbg_CM3_L.lib(net_icmp6.o)
    0x0800ee14   0x0800ee14   0x00000018   Code   RO         1468    i.net_icmp_init     Net_Dbg_CM3_L.lib(net_icmp.o)
    0x0800ee2c   0x0800ee2c   0x000001c8   Code   RO         1469    i.net_icmp_process  Net_Dbg_CM3_L.lib(net_icmp.o)
    0x0800eff4   0x0800eff4   0x000000a0   Code   RO         1470    i.net_icmp_send_echo  Net_Dbg_CM3_L.lib(net_icmp.o)
    0x0800f094   0x0800f094   0x0000000c   Code   RO         1869    i.net_if_map_all    Net_Dbg_CM3_L.lib(net_sys.o)
    0x0800f0a0   0x0800f0a0   0x0000018c   Code   RO         2050    i.net_ip4_chk_frame  Net_Dbg_CM3_L.lib(net_ip4.o)
    0x0800f22c   0x0800f22c   0x0000002c   Code   RO         2051    i.net_ip4_chksum    Net_Dbg_CM3_L.lib(net_ip4.o)
    0x0800f258   0x0800f258   0x00000006   Code   RO         2052    i.net_ip4_chksum_buf  Net_Dbg_CM3_L.lib(net_ip4.o)
    0x0800f25e   0x0800f25e   0x00000002   PAD
    0x0800f260   0x0800f260   0x00000080   Code   RO         2054    i.net_ip4_find_route  Net_Dbg_CM3_L.lib(net_ip4.o)
    0x0800f2e0   0x0800f2e0   0x00000124   Code   RO         1447    i.net_ip4_frag_add  Net_Dbg_CM3_L.lib(net_ip4_frag.o)
    0x0800f404   0x0800f404   0x000000ac   Code   RO         1448    i.net_ip4_frag_get  Net_Dbg_CM3_L.lib(net_ip4_frag.o)
    0x0800f4b0   0x0800f4b0   0x00000010   Code   RO         1449    i.net_ip4_frag_init  Net_Dbg_CM3_L.lib(net_ip4_frag.o)
    0x0800f4c0   0x0800f4c0   0x0000003c   Code   RO         1450    i.net_ip4_frag_run  Net_Dbg_CM3_L.lib(net_ip4_frag.o)
    0x0800f4fc   0x0800f4fc   0x00000010   Code   RO         1451    i.net_ip4_frag_uninit  Net_Dbg_CM3_L.lib(net_ip4_frag.o)
    0x0800f50c   0x0800f50c   0x0000002c   Code   RO         2055    i.net_ip4_get_local  Net_Dbg_CM3_L.lib(net_ip4.o)
    0x0800f538   0x0800f538   0x00000024   Code   RO         2056    i.net_ip4_init      Net_Dbg_CM3_L.lib(net_ip4.o)
    0x0800f55c   0x0800f55c   0x00000020   Code   RO         2057    i.net_ip4_is_onlink  Net_Dbg_CM3_L.lib(net_ip4.o)
    0x0800f57c   0x0800f57c   0x00000026   Code   RO         2058    i.net_ip4_is_subcast  Net_Dbg_CM3_L.lib(net_ip4.o)
    0x0800f5a2   0x0800f5a2   0x0000000e   Code   RO         2059    i.net_ip4_reass_frame  Net_Dbg_CM3_L.lib(net_ip4.o)
    0x0800f5b0   0x0800f5b0   0x00000164   Code   RO         2060    i.net_ip4_send_frame  Net_Dbg_CM3_L.lib(net_ip4.o)
    0x0800f714   0x0800f714   0x0000002a   Code   RO         2062    i.net_ip4_tx_offl_hl  Net_Dbg_CM3_L.lib(net_ip4.o)
    0x0800f73e   0x0800f73e   0x00000002   PAD
    0x0800f740   0x0800f740   0x00000020   Code   RO         2063    i.net_ip4_uninit    Net_Dbg_CM3_L.lib(net_ip4.o)
    0x0800f760   0x0800f760   0x00000100   Code   RO         2088    i.net_ip6_chk_frame  Net_Dbg_CM3_L.lib(net_ip6.o)
    0x0800f860   0x0800f860   0x00000032   Code   RO         2089    i.net_ip6_chksum    Net_Dbg_CM3_L.lib(net_ip6.o)
    0x0800f892   0x0800f892   0x00000002   PAD
    0x0800f894   0x0800f894   0x0000007c   Code   RO         2090    i.net_ip6_collect_mcast  Net_Dbg_CM3_L.lib(net_ip6.o)
    0x0800f910   0x0800f910   0x00000048   Code   RO         2092    i.net_ip6_find_route  Net_Dbg_CM3_L.lib(net_ip6.o)
    0x0800f958   0x0800f958   0x00000054   Code   RO         2093    i.net_ip6_get_local  Net_Dbg_CM3_L.lib(net_ip6.o)
    0x0800f9ac   0x0800f9ac   0x0000001c   Code   RO         2094    i.net_ip6_init      Net_Dbg_CM3_L.lib(net_ip6.o)
    0x0800f9c8   0x0800f9c8   0x000000cc   Code   RO         2095    i.net_ip6_send_frame  Net_Dbg_CM3_L.lib(net_ip6.o)
    0x0800fa94   0x0800fa94   0x0000001e   Code   RO         2097    i.net_ip6_tx_offl_hl  Net_Dbg_CM3_L.lib(net_ip6.o)
    0x0800fab2   0x0800fab2   0x00000002   PAD
    0x0800fab4   0x0800fab4   0x0000001c   Code   RO         2098    i.net_ip6_uninit    Net_Dbg_CM3_L.lib(net_ip6.o)
    0x0800fad0   0x0800fad0   0x00000008   Code   RO         2176    i.net_itoa          Net_Dbg_CM3_L.lib(net_common.o)
    0x0800fad8   0x0800fad8   0x00000006   Code   RO         2178    i.net_itoa_n0       Net_Dbg_CM3_L.lib(net_common.o)
    0x0800fade   0x0800fade   0x00000002   PAD
    0x0800fae0   0x0800fae0   0x00000030   Code   RO         1429    i.net_loop_iface_init  Net_Dbg_CM3_L.lib(net_loopback.o)
    0x0800fb10   0x0800fb10   0x000000bc   Code   RO         1430    i.net_loop_iface_run  Net_Dbg_CM3_L.lib(net_loopback.o)
    0x0800fbcc   0x0800fbcc   0x00000028   Code   RO         1431    i.net_loop_iface_uninit  Net_Dbg_CM3_L.lib(net_loopback.o)
    0x0800fbf4   0x0800fbf4   0x00000070   Code   RO         1432    i.net_loop_send_frame  Net_Dbg_CM3_L.lib(net_loopback.o)
    0x0800fc64   0x0800fc64   0x000000c0   Code   RO         2149    i.net_mem_alloc     Net_Dbg_CM3_L.lib(net_mem.o)
    0x0800fd24   0x0800fd24   0x0000001c   Code   RO         2150    i.net_mem_avail     Net_Dbg_CM3_L.lib(net_mem.o)
    0x0800fd40   0x0800fd40   0x000000a4   Code   RO         2151    i.net_mem_free      Net_Dbg_CM3_L.lib(net_mem.o)
    0x0800fde4   0x0800fde4   0x00000070   Code   RO         2152    i.net_mem_init      Net_Dbg_CM3_L.lib(net_mem.o)
    0x0800fe54   0x0800fe54   0x00000048   Code   RO         2153    i.net_mem_shrink    Net_Dbg_CM3_L.lib(net_mem.o)
    0x0800fe9c   0x0800fe9c   0x00000064   Code   RO         1669    i.net_nbns_client_init  Net_Dbg_CM3_L.lib(net_nbns_client.o)
    0x0800ff00   0x0800ff00   0x00000038   Code   RO         1670    i.net_nbns_client_uninit  Net_Dbg_CM3_L.lib(net_nbns_client.o)
    0x0800ff38   0x0800ff38   0x000001c4   Code   RO         1999    i.net_ndp_cache_find  Net_Dbg_CM3_L.lib(net_ndp.o)
    0x080100fc   0x080100fc   0x00000078   Code   RO         2002    i.net_ndp_cache_refresh  Net_Dbg_CM3_L.lib(net_ndp.o)
    0x08010174   0x08010174   0x00000070   Code   RO         2005    i.net_ndp_enqueue   Net_Dbg_CM3_L.lib(net_ndp.o)
    0x080101e4   0x080101e4   0x00000374   Code   RO         2007    i.net_ndp_process   Net_Dbg_CM3_L.lib(net_ndp.o)
    0x08010558   0x08010558   0x00000038   Code   RO         1871    i.net_path          Net_Dbg_CM3_L.lib(net_sys.o)
    0x08010590   0x08010590   0x00000020   Code   RO         1842    i.net_ping_client_init  Net_Dbg_CM3_L.lib(net_ping_core.o)
    0x080105b0   0x080105b0   0x00000080   Code   RO         1843    i.net_ping_client_run  Net_Dbg_CM3_L.lib(net_ping_core.o)
    0x08010630   0x08010630   0x00000020   Code   RO         1845    i.net_ping_client_uninit  Net_Dbg_CM3_L.lib(net_ping_core.o)
    0x08010650   0x08010650   0x0000001c   Code   RO         1872    i.net_rand32        Net_Dbg_CM3_L.lib(net_sys.o)
    0x0801066c   0x0801066c   0x0000002e   Code   RO         2179    i.net_strcasecmp    Net_Dbg_CM3_L.lib(net_common.o)
    0x0801069a   0x0801069a   0x00000016   Code   RO         2180    i.net_strchr        Net_Dbg_CM3_L.lib(net_common.o)
    0x080106b0   0x080106b0   0x0000001a   Code   RO         2181    i.net_strcmp        Net_Dbg_CM3_L.lib(net_common.o)
    0x080106ca   0x080106ca   0x00000012   Code   RO         2182    i.net_strcpy        Net_Dbg_CM3_L.lib(net_common.o)
    0x080106dc   0x080106dc   0x0000001c   Code   RO         2184    i.net_strnchr       Net_Dbg_CM3_L.lib(net_common.o)
    0x080106f8   0x080106f8   0x0000001a   Code   RO         2185    i.net_strncpy       Net_Dbg_CM3_L.lib(net_common.o)
    0x08010712   0x08010712   0x00000020   Code   RO         2186    i.net_strtoupper    Net_Dbg_CM3_L.lib(net_common.o)
    0x08010732   0x08010732   0x00000002   PAD
    0x08010734   0x08010734   0x0000000c   Code   RO         1873    i.net_sys_lock      Net_Dbg_CM3_L.lib(net_sys.o)
    0x08010740   0x08010740   0x00000016   Code   RO         1874    i.net_sys_resume    Net_Dbg_CM3_L.lib(net_sys.o)
    0x08010756   0x08010756   0x00000002   PAD
    0x08010758   0x08010758   0x00000014   Code   RO         1876    i.net_sys_tick      Net_Dbg_CM3_L.lib(net_sys.o)
    0x0801076c   0x0801076c   0x0000000c   Code   RO         1877    i.net_sys_unlock    Net_Dbg_CM3_L.lib(net_sys.o)
    0x08010778   0x08010778   0x00000020   Code   RO         1879    i.net_sys_wakeup    Net_Dbg_CM3_L.lib(net_sys.o)
    0x08010798   0x08010798   0x00000084   Code   RO         1561    i.net_tcp_abort     Net_Dbg_CM3_L.lib(net_tcp.o)
    0x0801081c   0x0801081c   0x000000e4   Code   RO         1564    i.net_tcp_close     Net_Dbg_CM3_L.lib(net_tcp.o)
    0x08010900   0x08010900   0x0000002e   Code   RO         1567    i.net_tcp_get_buf   Net_Dbg_CM3_L.lib(net_tcp.o)
    0x0801092e   0x0801092e   0x00000002   PAD
    0x08010930   0x08010930   0x00000028   Code   RO         1570    i.net_tcp_get_mss   Net_Dbg_CM3_L.lib(net_tcp.o)
    0x08010958   0x08010958   0x00000070   Code   RO         1574    i.net_tcp_get_socket  Net_Dbg_CM3_L.lib(net_tcp.o)
    0x080109c8   0x080109c8   0x0000002c   Code   RO         1575    i.net_tcp_get_state  Net_Dbg_CM3_L.lib(net_tcp.o)
    0x080109f4   0x080109f4   0x000000b0   Code   RO         1577    i.net_tcp_listen    Net_Dbg_CM3_L.lib(net_tcp.o)
    0x08010aa4   0x08010aa4   0x000007a8   Code   RO         1579    i.net_tcp_process   Net_Dbg_CM3_L.lib(net_tcp.o)
    0x0801124c   0x0801124c   0x0000015c   Code   RO         1583    i.net_tcp_send      Net_Dbg_CM3_L.lib(net_tcp.o)
    0x080113a8   0x080113a8   0x0000012c   Code   RO         1585    i.net_tcp_set_option  Net_Dbg_CM3_L.lib(net_tcp.o)
    0x080114d4   0x080114d4   0x00000028   Code   RO         1586    i.net_tcp_socket_init  Net_Dbg_CM3_L.lib(net_tcp.o)
    0x080114fc   0x080114fc   0x000003c0   Code   RO         1587    i.net_tcp_socket_run  Net_Dbg_CM3_L.lib(net_tcp.o)
    0x080118bc   0x080118bc   0x00000028   Code   RO         1588    i.net_tcp_socket_uninit  Net_Dbg_CM3_L.lib(net_tcp.o)
    0x080118e4   0x080118e4   0x0000002e   Code   RO         1498    i.net_udp_get_buf   Net_Dbg_CM3_L.lib(net_udp.o)
    0x08011912   0x08011912   0x00000002   PAD
    0x08011914   0x08011914   0x00000070   Code   RO         1501    i.net_udp_get_socket  Net_Dbg_CM3_L.lib(net_udp.o)
    0x08011984   0x08011984   0x000000ac   Code   RO         1503    i.net_udp_open      Net_Dbg_CM3_L.lib(net_udp.o)
    0x08011a30   0x08011a30   0x00000158   Code   RO         1504    i.net_udp_process   Net_Dbg_CM3_L.lib(net_udp.o)
    0x08011b88   0x08011b88   0x0000022c   Code   RO         1507    i.net_udp_send_if   Net_Dbg_CM3_L.lib(net_udp.o)
    0x08011db4   0x08011db4   0x00000024   Code   RO         1509    i.net_udp_socket_init  Net_Dbg_CM3_L.lib(net_udp.o)
    0x08011dd8   0x08011dd8   0x00000024   Code   RO         1510    i.net_udp_socket_uninit  Net_Dbg_CM3_L.lib(net_udp.o)
    0x08011dfc   0x08011dfc   0x00000008   Code   RO         2187    i.net_ultoa         Net_Dbg_CM3_L.lib(net_common.o)
    0x08011e04   0x08011e04   0x0000004c   Code   RO         2191    i.net_xtoul         Net_Dbg_CM3_L.lib(net_common.o)
    0x08011e50   0x08011e50   0x0000001c   Code   RO         1846    i.ping_send_req     Net_Dbg_CM3_L.lib(net_ping_core.o)
    0x08011e6c   0x08011e6c   0x00000058   Code   RO         1735    i.proc_req_line     Net_Dbg_CM3_L.lib(net_http_server.o)
    0x08011ec4   0x08011ec4   0x0000001a   Code   RO         1452    i.que_free_list     Net_Dbg_CM3_L.lib(net_ip4_frag.o)
    0x08011ede   0x08011ede   0x000000a0   Code   RO         1736    i.read_script_line  Net_Dbg_CM3_L.lib(net_http_server.o)
    0x08011f7e   0x08011f7e   0x00000048   Code   RO         1737    i.search_delim      Net_Dbg_CM3_L.lib(net_http_server.o)
    0x08011fc6   0x08011fc6   0x00000018   Code   RO         1880    i.sys_map_if        Net_Dbg_CM3_L.lib(net_sys.o)
    0x08011fde   0x08011fde   0x00000002   PAD
    0x08011fe0   0x08011fe0   0x0000004c   Code   RO         1881    i.sys_proc_tick     Net_Dbg_CM3_L.lib(net_sys.o)
    0x0801202c   0x0801202c   0x00000110   Code   RO         1589    i.tcp_map_socket    Net_Dbg_CM3_L.lib(net_tcp.o)
    0x0801213c   0x0801213c   0x00000084   Code   RO         1590    i.tcp_parse_opt     Net_Dbg_CM3_L.lib(net_tcp.o)
    0x080121c0   0x080121c0   0x0000011c   Code   RO         1591    i.tcp_proc_acknr    Net_Dbg_CM3_L.lib(net_tcp.o)
    0x080122dc   0x080122dc   0x000000ac   Code   RO         1592    i.tcp_proc_dupack   Net_Dbg_CM3_L.lib(net_tcp.o)
    0x08012388   0x08012388   0x0000001a   Code   RO         1593    i.tcp_que_free      Net_Dbg_CM3_L.lib(net_tcp.o)
    0x080123a2   0x080123a2   0x0000001a   Code   RO         1594    i.tcp_que_init      Net_Dbg_CM3_L.lib(net_tcp.o)
    0x080123bc   0x080123bc   0x000000ac   Code   RO         1595    i.tcp_que_resend    Net_Dbg_CM3_L.lib(net_tcp.o)
    0x08012468   0x08012468   0x00000090   Code   RO         1596    i.tcp_send_ctrl     Net_Dbg_CM3_L.lib(net_tcp.o)
    0x080124f8   0x080124f8   0x0000007c   Code   RO         1597    i.tcp_send_data     Net_Dbg_CM3_L.lib(net_tcp.o)
    0x08012574   0x08012574   0x00000090   Code   RO         1598    i.tcp_send_reset    Net_Dbg_CM3_L.lib(net_tcp.o)
    0x08012604   0x08012604   0x00000044   Code   RO         1599    i.tcp_set_cwnd      Net_Dbg_CM3_L.lib(net_tcp.o)
    0x08012648   0x08012648   0x00000074   Code   RO         1600    i.tcp_transit       Net_Dbg_CM3_L.lib(net_tcp.o)
    0x080126bc   0x080126bc   0x0000010c   Code   RO         1601    i.tcp_write         Net_Dbg_CM3_L.lib(net_tcp.o)
    0x080127c8   0x080127c8   0x0000002c   Code   RO         1511    i.udp_port_in_use   Net_Dbg_CM3_L.lib(net_udp.o)
    0x080127f4   0x080127f4   0x00000044   Code   RO         2192    i.ul2str            Net_Dbg_CM3_L.lib(net_common.o)
    0x08012838   0x08012838   0x00000124   Code   RO         1738    i.utc_to_http       Net_Dbg_CM3_L.lib(net_http_server.o)
    0x0801295c   0x0801295c   0x00000024   Data   RO            6    .constdata          http_server.o
    0x08012980   0x08012980   0x0000ce98   Data   RO          177    .constdata          web.o
    0x0801f818   0x0801f818   0x00000001   Data   RO          226    .constdata          irq_armv7m.o
    0x0801f819   0x0801f819   0x00000003   PAD
    0x0801f81c   0x0801f81c   0x00000068   Data   RO          416    .constdata          rtx_lib.o
    0x0801f884   0x0801f884   0x00000024   Data   RO          757    .constdata          phy_lan8742a.o
    0x0801f8a8   0x0801f8a8   0x00000094   Data   RO          788    .constdata          emac_stm32f7xx.o
    0x0801f93c   0x0801f93c   0x00000018   Data   RO          833    .constdata          eventrecorder.o
    0x0801f954   0x0801f954   0x00000018   Data   RO         1200    .constdata          system_stm32f7xx.o
    0x0801f96c   0x0801f96c   0x00000268   Data   RO         1233    .constdata          net_config.o
    0x0801fbd4   0x0801fbd4   0x0000002c   Data   RO         1433    .constdata          Net_Dbg_CM3_L.lib(net_loopback.o)
    0x0801fc00   0x0801fc00   0x0000000c   Data   RO         1434    .constdata          Net_Dbg_CM3_L.lib(net_loopback.o)
    0x0801fc0c   0x0801fc0c   0x00000008   Data   RO         1671    .constdata          Net_Dbg_CM3_L.lib(net_nbns_client.o)
    0x0801fc14   0x0801fc14   0x000000fa   Data   RO         1740    .constdata          Net_Dbg_CM3_L.lib(net_http_server.o)
    0x0801fd0e   0x0801fd0e   0x00000002   PAD
    0x0801fd10   0x0801fd10   0x00000018   Data   RO         1819    .constdata          Net_Dbg_CM3_L.lib(net_http_server_auth.o)
    0x0801fd28   0x0801fd28   0x00000012   Data   RO         1848    .constdata          Net_Dbg_CM3_L.lib(net_ping_core.o)
    0x0801fd3a   0x0801fd3a   0x00000010   Data   RO         1941    .constdata          Net_Dbg_CM3_L.lib(net_addr.o)
    0x0801fd4a   0x0801fd4a   0x00000006   Data   RO         1942    .constdata          Net_Dbg_CM3_L.lib(net_addr.o)
    0x0801fd50   0x0801fd50   0x00000004   Data   RO         2064    .constdata          Net_Dbg_CM3_L.lib(net_ip4.o)
    0x0801fd54   0x0801fd54   0x00000020   Data   RO         2099    .constdata          Net_Dbg_CM3_L.lib(net_ip6.o)
    0x0801fd74   0x0801fd74   0x00000018   Data   RO         2139    .constdata          Net_Dbg_CM3_L.lib(net_http_server_err.o)
    0x0801fd8c   0x0801fd8c   0x00000090   Data   RO         2240    .constdata          Net_Dbg_CM3_L.lib(net_base64.o)
    0x0801fe1c   0x0801fe1c   0x00000004   Data   RO         2249    .constdata          Net_Dbg_CM3_L.lib(net_version.o)
    0x0801fe20   0x0801fe20   0x00000040   Data   RO         2595    .constdata          mc_w.l(ctype_c.o)
    0x0801fe60   0x0801fe60   0x000000e5   Data   RO         1234    .conststring        net_config.o
    0x0801ff45   0x0801ff45   0x00000003   PAD
    0x0801ff48   0x0801ff48   0x00000203   Data   RO         2140    .conststring        Net_Dbg_CM3_L.lib(net_http_server_err.o)
    0x0802014b   0x0802014b   0x00000001   PAD
    0x0802014c   0x0802014c   0x0000000b   Data   RO          362    .conststrlit        rtx_kernel.o
    0x08020157   0x08020157   0x00000001   PAD
    0x08020158   0x08020158   0x000000a8   Data   RO          417    .rodata             rtx_lib.o
    0x08020200   0x08020200   0x00000030   Data   RO         2597    Region$$Table       anon$$obj.o


    Execution Region RW_IRAM2 (Exec base: 0x20000000, Load base: 0x08020374, Size: 0x0000e4c0, Max: 0x00020000, ABSOLUTE)

    Exec Addr    Load Addr    Size         Type   Attr      Idx    E Section Name        Object

    0x20000000        -       0x000004a4   Zero   RW          832    .bss.noinit         eventrecorder.o
    0x200004a4   0x08020374   0x0000bb5c   PAD
    0x2000c000        -       0x000024c0   Zero   RW          786    .ARM.__AT_0x2000C000  emac_stm32f7xx.o


    Execution Region RW_IRAM1 (Exec base: 0x20020000, Load base: 0x08020230, Size: 0x0000cdf8, Max: 0x00060000, ABSOLUTE, COMPRESSED[0x00000144])

    Exec Addr    Load Addr    Size         Type   Attr      Idx    E Section Name        Object

    0x20020000   COMPRESSED   0x00008040   Data   RW          410    .bss.os             rtx_lib.o
    0x20028040   COMPRESSED   0x00000001   Data   RW          709    .bss.os             os_systick.o
    0x20028041   COMPRESSED   0x00000003   PAD
    0x20028044   COMPRESSED   0x00000034   Data   RW          411    .bss.os.msgqueue.cb  rtx_lib.o
    0x20028078   COMPRESSED   0x00000050   Data   RW          412    .bss.os.msgqueue.mem  rtx_lib.o
    0x200280c8   COMPRESSED   0x00000038   Data   RW         1229    .bss.os.mutex.cb    net_config.o
    0x20028100   COMPRESSED   0x00000010   Data   RW         1230    .bss.os.semaphore.cb  net_config.o
    0x20028110   COMPRESSED   0x00000088   Data   RW          413    .bss.os.thread.cb   rtx_lib.o
    0x20028198   COMPRESSED   0x00000088   Data   RW         1231    .bss.os.thread.cb   net_config.o
    0x20028220   COMPRESSED   0x00000200   Data   RW          414    .bss.os.thread.idle.stack  rtx_lib.o
    0x20028420   COMPRESSED   0x00000200   Data   RW          415    .bss.os.thread.timer.stack  rtx_lib.o
    0x20028620   COMPRESSED   0x00000020   Data   RW         1232    .bss.os.timer.cb    net_config.o
    0x20028640   COMPRESSED   0x00000054   Data   RW          153    .data               http_server_cgi.o
    0x20028694   COMPRESSED   0x00000004   Data   RW          198    .data               main.o
    0x20028698   COMPRESSED   0x00000001   Data   RW          834    .data               eventrecorder.o
    0x20028699   COMPRESSED   0x00000003   PAD
    0x2002869c   COMPRESSED   0x00000009   Data   RW          870    .data               stm32f7xx_hal.o
    0x200286a5   COMPRESSED   0x00000003   PAD
    0x200286a8   COMPRESSED   0x00000004   Data   RW         1201    .data               system_stm32f7xx.o
    0x200286ac   COMPRESSED   0x0000000e   Data   RW         1235    .data               net_config.o
    0x200286ba   COMPRESSED   0x00000002   PAD
    0x200286bc   COMPRESSED   0x00000004   Data   RW         1435    .data               Net_Dbg_CM3_L.lib(net_loopback.o)
    0x200286c0   COMPRESSED   0x00000004   Data   RW         1453    .data               Net_Dbg_CM3_L.lib(net_ip4_frag.o)
    0x200286c4   COMPRESSED   0x00000001   Data   RW         1471    .data               Net_Dbg_CM3_L.lib(net_icmp.o)
    0x200286c5   COMPRESSED   0x00000001   PAD
    0x200286c6   COMPRESSED   0x00000002   Data   RW         1513    .data               Net_Dbg_CM3_L.lib(net_udp.o)
    0x200286c8   COMPRESSED   0x00000004   Data   RW         1604    .data               Net_Dbg_CM3_L.lib(net_tcp.o)
    0x200286cc   COMPRESSED   0x00000001   Data   RW         1672    .data               Net_Dbg_CM3_L.lib(net_nbns_client.o)
    0x200286cd   COMPRESSED   0x00000003   PAD
    0x200286d0   COMPRESSED   0x0000000c   Data   RW         1741    .data               Net_Dbg_CM3_L.lib(net_http_server.o)
    0x200286dc   COMPRESSED   0x00000008   Data   RW         2065    .data               Net_Dbg_CM3_L.lib(net_ip4.o)
    0x200286e4   COMPRESSED   0x00000004   Data   RW         2101    .data               Net_Dbg_CM3_L.lib(net_ip6.o)
    0x200286e8   COMPRESSED   0x000000a4   Data   RW          363    .data.os            rtx_kernel.o
    0x2002878c   COMPRESSED   0x00000004   PAD
    0x20028790        -       0x00000400   Zero   RW            5    .bss                http_server.o
    0x20028b90        -       0x00000038   Zero   RW          152    .bss                http_server_cgi.o
    0x20028bc8        -       0x0000000c   Zero   RW          756    .bss                phy_lan8742a.o
    0x20028bd4        -       0x0000000c   Zero   RW          787    .bss                emac_stm32f7xx.o
    0x20028be0        -       0x00003bb0   Zero   RW         1228    .bss                net_config.o
    0x2002c790        -       0x000000a0   Zero   RW         1330    .bss                Net_Dbg_CM3_L.lib(net_eth.o)
    0x2002c830        -       0x00000018   Zero   RW         1390    .bss                Net_Dbg_CM3_L.lib(net_arp.o)
    0x2002c848        -       0x0000001c   Zero   RW         1512    .bss                Net_Dbg_CM3_L.lib(net_udp.o)
    0x2002c864        -       0x00000098   Zero   RW         1739    .bss                Net_Dbg_CM3_L.lib(net_http_server.o)
    0x2002c8fc        -       0x0000002c   Zero   RW         1847    .bss                Net_Dbg_CM3_L.lib(net_ping_core.o)
    0x2002c928        -       0x00000038   Zero   RW         1882    .bss                Net_Dbg_CM3_L.lib(net_sys.o)
    0x2002c960        -       0x00000024   Zero   RW         1883    .bss                Net_Dbg_CM3_L.lib(net_sys.o)
    0x2002c984        -       0x0000005c   Zero   RW         1940    .bss                Net_Dbg_CM3_L.lib(net_addr.o)
    0x2002c9e0        -       0x00000014   Zero   RW         2155    .bss                Net_Dbg_CM3_L.lib(net_mem.o)
    0x2002c9f4   COMPRESSED   0x00000004   PAD
    0x2002c9f8        -       0x00000400   Zero   RW         1189    STACK               startup_stm32f769xx.o


==============================================================================

Image component sizes


      Code (inc. data)   RO Data    RW Data    ZI Data      Debug   Object Name

      3908        202        148          0       9420      55270   emac_stm32f7xx.o
      1692         44         24          1       1188      17308   eventrecorder.o
        10          0         36          0       1024     958163   http_server.o
      1684        344          0         84         56       7312   http_server_cgi.o
       148          8          1          0          0        660   irq_armv7m.o
       500         26          0          4          0       3376   main.o
       376         24        845        254      15280      32886   net_config.o
       336          0          0          0          0        902   net_debug.o
       220         14          0          1          0       1992   os_systick.o
       548          8         36          0         12       7678   phy_lan8742a.o
        36          6          0          0          0        691   rtx_config.o
       284         12          0          0          0      17902   rtx_delay.o
      3544        106          0          0          0      52789   rtx_evr.o
      2224        100         11        164          0      27460   rtx_kernel.o
        24          0        272      34124          0       9939   rtx_lib.o
       478          0          0          0          0       2991   rtx_memory.o
      2284         46          0          0          0      15184   rtx_mempool.o
      3280         60          0          0          0      23580   rtx_msgqueue.o
      1604         30          0          0          0       9882   rtx_mutex.o
      1658         34          0          0          0      12004   rtx_semaphore.o
       772         20          0          0          0       8337   rtx_system.o
      5824        152          0          0          0      32237   rtx_thread.o
      1336         36          0          0          0      10141   rtx_timer.o
        36          8        504          0       1024        856   startup_stm32f769xx.o
       592         42          0          9          0      11356   stm32f7xx_hal.o
       900         20          0          0          0      41058   stm32f7xx_hal_cortex.o
       992         52          0          0          0       3543   stm32f7xx_hal_gpio.o
       896         18          0          0          0       4487   stm32f7xx_hal_pwr_ex.o
      2892         74          0          0          0       5839   stm32f7xx_hal_rcc.o
       208         24         24          4          0       1641   system_stm32f7xx.o
       136          8      52888          0          0       1716   web.o

    ----------------------------------------------------------------------
     39428       1518      54844      34656      75972    1379180   Object Totals
         0          0         48          0          0          0   (incl. Generated)
         6          0          7         11      47968          0   (incl. Padding)

    ----------------------------------------------------------------------

      Code (inc. data)   RO Data    RW Data    ZI Data      Debug   Library Member Name

      1060         18         22          0         92       1220   net_addr.o
      2938        152          0          0         24       1628   net_arp.o
       120          6        144          0          0         84   net_base64.o
       574          6          0          0          0       1260   net_common.o
      3816        150          0          0        160       1756   net_eth.o
      6802       1252        250         12        152       2656   net_http_server.o
       266         66         24          0          0        368   net_http_server_auth.o
         0          0        539          0          0          0   net_http_server_err.o
       640         48          0          1          0        236   net_icmp.o
       812         60          0          0          0        332   net_icmp6.o
      1220         92          4          8          0       1032   net_ip4.o
       706         34          0          4          0        544   net_ip4_frag.o
       876         80         32          4          0        720   net_ip6.o
       388         36         56          4          0        336   net_loopback.o
       592         64          0          0         20        564   net_mem.o
       576         58          8          1          0        268   net_nbns_client.o
      3058        106          0          0          0       1404   net_ndp.o
       220         40         18          0         44        300   net_ping_core.o
       698         76          0          0         92        928   net_sys.o
      6374        280          0          4          0       2312   net_tcp.o
      1346         78          0          2         28        700   net_udp.o
         0          0          4          0          0          0   net_version.o
        56          8          0          0          0         84   __0sscanf.o
        86          0          0          0          0          0   __dczerorl2.o
        28          0          0          0          0         68   _chval.o
       816          6          0          0          0        112   _scanf.o
       332          0          0          0          0         96   _scanf_int.o
        64          0          0          0          0         84   _sgetc.o
        40          6         64          0          0         68   ctype_c.o
         0          0          0          0          0          0   entry.o
         0          0          0          0          0          0   entry10a.o
         0          0          0          0          0          0   entry11a.o
         4          0          0          0          0          0   entry12b.o
         8          4          0          0          0          0   entry2.o
         4          0          0          0          0          0   entry5.o
         0          0          0          0          0          0   entry7b.o
         0          0          0          0          0          0   entry8b.o
         8          4          0          0          0          0   entry9a.o
        30          0          0          0          0          0   handlers.o
        36          8          0          0          0         68   init.o
        10          0          0          0          0         68   isspace_c.o
        30          0          0          0          0         68   llshl.o
        32          0          0          0          0         68   llushr.o
        26          0          0          0          0         80   memcmp.o
        36          0          0          0          0         68   memcpya.o
        36          0          0          0          0        108   memseta.o
      1160         50          0          0          0        420   printf8.o
        40          8          0          0          0         84   scanf_char.o
        28          0          0          0          0         76   strcmp.o
        14          0          0          0          0         68   strlen.o
        30          0          0          0          0         80   strncmp.o
        98          0          0          0          0         92   uldiv.o

    ----------------------------------------------------------------------
     36192       2796       1168         44        616      20508   Library Totals
        58          0          3          4          4          0   (incl. Padding)

    ----------------------------------------------------------------------

      Code (inc. data)   RO Data    RW Data    ZI Data      Debug   Library Name

     33082       2702       1101         40        612      18648   Net_Dbg_CM3_L.lib
      3052         94         64          0          0       1860   mc_w.l

    ----------------------------------------------------------------------
     36192       2796       1168         44        616      20508   Library Totals

    ----------------------------------------------------------------------

==============================================================================


      Code (inc. data)   RO Data    RW Data    ZI Data      Debug   

     75620       4314      56012      34700      76588    1382328   Grand Totals
     75620       4314      56012        324      76588    1382328   ELF Image Totals (compressed)
     75620       4314      56012        324          0          0   ROM Totals

==============================================================================

    Total RO  Size (Code + RO Data)               131632 ( 128.55kB)
    Total RW  Size (RW Data + ZI Data)            111288 ( 108.68kB)
    Total ROM Size (Code + RO Data + RW Data)     131956 ( 128.86kB)

==============================================================================

